
main.x86.out:     file format elf64-x86-64


Disassembly of section .init:

0000000000000650 <_init>:
 650:	48 83 ec 08          	sub    $0x8,%rsp
 654:	48 8b 05 8d 39 20 00 	mov    0x20398d(%rip),%rax        # 203fe8 <__gmon_start__>
 65b:	48 85 c0             	test   %rax,%rax
 65e:	74 02                	je     662 <_init+0x12>
 660:	ff d0                	callq  *%rax
 662:	48 83 c4 08          	add    $0x8,%rsp
 666:	c3                   	retq   

Disassembly of section .plt:

0000000000000670 <.plt>:
 670:	ff 35 22 39 20 00    	pushq  0x203922(%rip)        # 203f98 <_GLOBAL_OFFSET_TABLE_+0x8>
 676:	ff 25 24 39 20 00    	jmpq   *0x203924(%rip)        # 203fa0 <_GLOBAL_OFFSET_TABLE_+0x10>
 67c:	0f 1f 40 00          	nopl   0x0(%rax)

0000000000000680 <free@plt>:
 680:	ff 25 22 39 20 00    	jmpq   *0x203922(%rip)        # 203fa8 <free@GLIBC_2.2.5>
 686:	68 00 00 00 00       	pushq  $0x0
 68b:	e9 e0 ff ff ff       	jmpq   670 <.plt>

0000000000000690 <putchar@plt>:
 690:	ff 25 1a 39 20 00    	jmpq   *0x20391a(%rip)        # 203fb0 <putchar@GLIBC_2.2.5>
 696:	68 01 00 00 00       	pushq  $0x1
 69b:	e9 d0 ff ff ff       	jmpq   670 <.plt>

00000000000006a0 <puts@plt>:
 6a0:	ff 25 12 39 20 00    	jmpq   *0x203912(%rip)        # 203fb8 <puts@GLIBC_2.2.5>
 6a6:	68 02 00 00 00       	pushq  $0x2
 6ab:	e9 c0 ff ff ff       	jmpq   670 <.plt>

00000000000006b0 <__stack_chk_fail@plt>:
 6b0:	ff 25 0a 39 20 00    	jmpq   *0x20390a(%rip)        # 203fc0 <__stack_chk_fail@GLIBC_2.4>
 6b6:	68 03 00 00 00       	pushq  $0x3
 6bb:	e9 b0 ff ff ff       	jmpq   670 <.plt>

00000000000006c0 <malloc@plt>:
 6c0:	ff 25 02 39 20 00    	jmpq   *0x203902(%rip)        # 203fc8 <malloc@GLIBC_2.2.5>
 6c6:	68 04 00 00 00       	pushq  $0x4
 6cb:	e9 a0 ff ff ff       	jmpq   670 <.plt>

00000000000006d0 <__printf_chk@plt>:
 6d0:	ff 25 fa 38 20 00    	jmpq   *0x2038fa(%rip)        # 203fd0 <__printf_chk@GLIBC_2.3.4>
 6d6:	68 05 00 00 00       	pushq  $0x5
 6db:	e9 90 ff ff ff       	jmpq   670 <.plt>

Disassembly of section .plt.got:

00000000000006e0 <__cxa_finalize@plt>:
 6e0:	ff 25 12 39 20 00    	jmpq   *0x203912(%rip)        # 203ff8 <__cxa_finalize@GLIBC_2.2.5>
 6e6:	66 90                	xchg   %ax,%ax

Disassembly of section .text:

00000000000006f0 <main>:
     6f0:	41 57                	push   %r15
     6f2:	41 56                	push   %r14
     6f4:	bf 50 00 00 00       	mov    $0x50,%edi
     6f9:	41 55                	push   %r13
     6fb:	41 54                	push   %r12
     6fd:	55                   	push   %rbp
     6fe:	53                   	push   %rbx
     6ff:	48 83 ec 08          	sub    $0x8,%rsp
     703:	e8 b8 ff ff ff       	callq  6c0 <malloc@plt>
     708:	bf 16 02 00 00       	mov    $0x216,%edi
     70d:	49 89 c7             	mov    %rax,%r15
     710:	e8 9b 1e 00 00       	callq  25b0 <mk1sArray>
     715:	bf 2d 01 00 00       	mov    $0x12d,%edi
     71a:	49 89 07             	mov    %rax,(%r15)
     71d:	4d 8d 6f 50          	lea    0x50(%r15),%r13
     721:	e8 8a 1e 00 00       	callq  25b0 <mk1sArray>
     726:	bf 0b 00 00 00       	mov    $0xb,%edi
     72b:	49 89 47 08          	mov    %rax,0x8(%r15)
     72f:	e8 7c 1e 00 00       	callq  25b0 <mk1sArray>
     734:	bf 46 02 00 00       	mov    $0x246,%edi
     739:	49 89 47 10          	mov    %rax,0x10(%r15)
     73d:	e8 6e 1e 00 00       	callq  25b0 <mk1sArray>
     742:	bf 81 00 00 00       	mov    $0x81,%edi
     747:	49 89 47 18          	mov    %rax,0x18(%r15)
     74b:	e8 60 1e 00 00       	callq  25b0 <mk1sArray>
     750:	bf 02 01 00 00       	mov    $0x102,%edi
     755:	49 89 47 20          	mov    %rax,0x20(%r15)
     759:	e8 52 1e 00 00       	callq  25b0 <mk1sArray>
     75e:	bf 08 00 00 00       	mov    $0x8,%edi
     763:	49 89 47 28          	mov    %rax,0x28(%r15)
     767:	e8 44 1e 00 00       	callq  25b0 <mk1sArray>
     76c:	bf 10 00 00 00       	mov    $0x10,%edi
     771:	49 89 47 30          	mov    %rax,0x30(%r15)
     775:	e8 36 1e 00 00       	callq  25b0 <mk1sArray>
     77a:	bf 22 00 00 00       	mov    $0x22,%edi
     77f:	49 89 47 38          	mov    %rax,0x38(%r15)
     783:	e8 28 1e 00 00       	callq  25b0 <mk1sArray>
     788:	bf 09 00 00 00       	mov    $0x9,%edi
     78d:	49 89 47 40          	mov    %rax,0x40(%r15)
     791:	e8 1a 1e 00 00       	callq  25b0 <mk1sArray>
     796:	8b 15 78 38 20 00    	mov    0x203878(%rip),%edx        # 204014 <verbose>
     79c:	49 89 47 48          	mov    %rax,0x48(%r15)
     7a0:	85 d2                	test   %edx,%edx
     7a2:	7f 4e                	jg     7f2 <main+0x102>
     7a4:	4c 89 ff             	mov    %r15,%rdi
     7a7:	4c 89 fb             	mov    %r15,%rbx
     7aa:	e8 41 1a 00 00       	callq  21f0 <triangleCount>
     7af:	48 8d 35 df 22 00 00 	lea    0x22df(%rip),%rsi        # 2a95 <_IO_stdin_used+0x35>
     7b6:	48 89 c2             	mov    %rax,%rdx
     7b9:	bf 01 00 00 00       	mov    $0x1,%edi
     7be:	31 c0                	xor    %eax,%eax
     7c0:	e8 0b ff ff ff       	callq  6d0 <__printf_chk@plt>
     7c5:	0f 1f 00             	nopl   (%rax)
     7c8:	48 8b 3b             	mov    (%rbx),%rdi
     7cb:	48 83 c3 08          	add    $0x8,%rbx
     7cf:	e8 ac fe ff ff       	callq  680 <free@plt>
     7d4:	49 39 dd             	cmp    %rbx,%r13
     7d7:	75 ef                	jne    7c8 <main+0xd8>
     7d9:	4c 89 ff             	mov    %r15,%rdi
     7dc:	e8 9f fe ff ff       	callq  680 <free@plt>
     7e1:	48 83 c4 08          	add    $0x8,%rsp
     7e5:	31 c0                	xor    %eax,%eax
     7e7:	5b                   	pop    %rbx
     7e8:	5d                   	pop    %rbp
     7e9:	41 5c                	pop    %r12
     7eb:	41 5d                	pop    %r13
     7ed:	41 5e                	pop    %r14
     7ef:	41 5f                	pop    %r15
     7f1:	c3                   	retq   
     7f2:	4d 89 fc             	mov    %r15,%r12
     7f5:	4d 8d 6f 50          	lea    0x50(%r15),%r13
     7f9:	bd 01 00 00 00       	mov    $0x1,%ebp
     7fe:	eb 09                	jmp    809 <main+0x119>
     800:	49 83 c4 08          	add    $0x8,%r12
     804:	4d 39 e5             	cmp    %r12,%r13
     807:	74 7a                	je     883 <main+0x193>
     809:	8b 05 05 38 20 00    	mov    0x203805(%rip),%eax        # 204014 <verbose>
     80f:	85 c0                	test   %eax,%eax
     811:	7e ed                	jle    800 <main+0x110>
     813:	49 8b 1c 24          	mov    (%r12),%rbx
     817:	45 31 f6             	xor    %r14d,%r14d
     81a:	eb 23                	jmp    83f <main+0x14f>
     81c:	0f 1f 40 00          	nopl   0x0(%rax)
     820:	31 d2                	xor    %edx,%edx
     822:	48 8d 35 3b 22 00 00 	lea    0x223b(%rip),%rsi        # 2a64 <_IO_stdin_used+0x4>
     829:	31 c0                	xor    %eax,%eax
     82b:	bf 01 00 00 00       	mov    $0x1,%edi
     830:	41 83 c6 01          	add    $0x1,%r14d
     834:	e8 97 fe ff ff       	callq  6d0 <__printf_chk@plt>
     839:	41 83 fe 0a          	cmp    $0xa,%r14d
     83d:	74 31                	je     870 <main+0x180>
     83f:	44 89 f1             	mov    %r14d,%ecx
     842:	48 8b 13             	mov    (%rbx),%rdx
     845:	89 e8                	mov    %ebp,%eax
     847:	d3 e0                	shl    %cl,%eax
     849:	48 63 c8             	movslq %eax,%rcx
     84c:	48 85 d1             	test   %rdx,%rcx
     84f:	74 cf                	je     820 <main+0x130>
     851:	83 e8 01             	sub    $0x1,%eax
     854:	48 8d 73 08          	lea    0x8(%rbx),%rsi
     858:	48 63 f8             	movslq %eax,%rdi
     85b:	48 21 d7             	and    %rdx,%rdi
     85e:	e8 0d 21 00 00       	callq  2970 <popcount_address_loop>
     863:	48 8b 10             	mov    (%rax),%rdx
     866:	eb ba                	jmp    822 <main+0x132>
     868:	0f 1f 84 00 00 00 00 	nopl   0x0(%rax,%rax,1)
     86f:	00 
     870:	bf 0a 00 00 00       	mov    $0xa,%edi
     875:	49 83 c4 08          	add    $0x8,%r12
     879:	e8 12 fe ff ff       	callq  690 <putchar@plt>
     87e:	4d 39 e5             	cmp    %r12,%r13
     881:	75 86                	jne    809 <main+0x119>
     883:	bf 0a 00 00 00       	mov    $0xa,%edi
     888:	e8 03 fe ff ff       	callq  690 <putchar@plt>
     88d:	83 3d 80 37 20 00 00 	cmpl   $0x0,0x203780(%rip)        # 204014 <verbose>
     894:	0f 8e 0a ff ff ff    	jle    7a4 <main+0xb4>
     89a:	48 8d 3d c8 21 00 00 	lea    0x21c8(%rip),%rdi        # 2a69 <_IO_stdin_used+0x9>
     8a1:	bb 01 00 00 00       	mov    $0x1,%ebx
     8a6:	41 be 01 00 00 00    	mov    $0x1,%r14d
     8ac:	e8 ef fd ff ff       	callq  6a0 <puts@plt>
     8b1:	e9 be 02 00 00       	jmpq   b74 <main+0x484>
     8b6:	66 2e 0f 1f 84 00 00 	nopw   %cs:0x0(%rax,%rax,1)
     8bd:	00 00 00 
     8c0:	49 8b 17             	mov    (%r15),%rdx
     8c3:	4c 85 22             	test   %r12,(%rdx)
     8c6:	0f 95 c2             	setne  %dl
     8c9:	38 c2                	cmp    %al,%dl
     8cb:	74 17                	je     8e4 <main+0x1f4>
     8cd:	48 8d 35 af 21 00 00 	lea    0x21af(%rip),%rsi        # 2a83 <_IO_stdin_used+0x23>
     8d4:	31 c9                	xor    %ecx,%ecx
     8d6:	89 ea                	mov    %ebp,%edx
     8d8:	bf 01 00 00 00       	mov    $0x1,%edi
     8dd:	31 c0                	xor    %eax,%eax
     8df:	e8 ec fd ff ff       	callq  6d0 <__printf_chk@plt>
     8e4:	83 fd 01             	cmp    $0x1,%ebp
     8e7:	0f 84 83 02 00 00    	je     b70 <main+0x480>
     8ed:	49 8b 04 df          	mov    (%r15,%rbx,8),%rax
     8f1:	48 8b 00             	mov    (%rax),%rax
     8f4:	83 e0 02             	and    $0x2,%eax
     8f7:	0f 85 cb 02 00 00    	jne    bc8 <main+0x4d8>
     8fd:	48 85 c0             	test   %rax,%rax
     900:	49 8b 47 08          	mov    0x8(%r15),%rax
     904:	0f 95 c2             	setne  %dl
     907:	4c 85 20             	test   %r12,(%rax)
     90a:	0f 95 c0             	setne  %al
     90d:	38 c2                	cmp    %al,%dl
     90f:	74 1a                	je     92b <main+0x23b>
     911:	48 8d 35 6b 21 00 00 	lea    0x216b(%rip),%rsi        # 2a83 <_IO_stdin_used+0x23>
     918:	b9 01 00 00 00       	mov    $0x1,%ecx
     91d:	89 ea                	mov    %ebp,%edx
     91f:	bf 01 00 00 00       	mov    $0x1,%edi
     924:	31 c0                	xor    %eax,%eax
     926:	e8 a5 fd ff ff       	callq  6d0 <__printf_chk@plt>
     92b:	83 fd 02             	cmp    $0x2,%ebp
     92e:	0f 84 3c 02 00 00    	je     b70 <main+0x480>
     934:	49 8b 04 df          	mov    (%r15,%rbx,8),%rax
     938:	48 8b 00             	mov    (%rax),%rax
     93b:	83 e0 04             	and    $0x4,%eax
     93e:	0f 85 b4 02 00 00    	jne    bf8 <main+0x508>
     944:	48 85 c0             	test   %rax,%rax
     947:	49 8b 47 10          	mov    0x10(%r15),%rax
     94b:	0f 95 c2             	setne  %dl
     94e:	4c 85 20             	test   %r12,(%rax)
     951:	0f 95 c0             	setne  %al
     954:	38 c2                	cmp    %al,%dl
     956:	74 1a                	je     972 <main+0x282>
     958:	48 8d 35 24 21 00 00 	lea    0x2124(%rip),%rsi        # 2a83 <_IO_stdin_used+0x23>
     95f:	b9 02 00 00 00       	mov    $0x2,%ecx
     964:	89 ea                	mov    %ebp,%edx
     966:	bf 01 00 00 00       	mov    $0x1,%edi
     96b:	31 c0                	xor    %eax,%eax
     96d:	e8 5e fd ff ff       	callq  6d0 <__printf_chk@plt>
     972:	83 fd 03             	cmp    $0x3,%ebp
     975:	0f 84 f5 01 00 00    	je     b70 <main+0x480>
     97b:	49 8b 04 df          	mov    (%r15,%rbx,8),%rax
     97f:	48 8b 00             	mov    (%rax),%rax
     982:	83 e0 08             	and    $0x8,%eax
     985:	0f 85 9d 02 00 00    	jne    c28 <main+0x538>
     98b:	48 85 c0             	test   %rax,%rax
     98e:	49 8b 47 18          	mov    0x18(%r15),%rax
     992:	0f 95 c2             	setne  %dl
     995:	4c 85 20             	test   %r12,(%rax)
     998:	0f 95 c0             	setne  %al
     99b:	38 c2                	cmp    %al,%dl
     99d:	74 1a                	je     9b9 <main+0x2c9>
     99f:	48 8d 35 dd 20 00 00 	lea    0x20dd(%rip),%rsi        # 2a83 <_IO_stdin_used+0x23>
     9a6:	b9 03 00 00 00       	mov    $0x3,%ecx
     9ab:	89 ea                	mov    %ebp,%edx
     9ad:	bf 01 00 00 00       	mov    $0x1,%edi
     9b2:	31 c0                	xor    %eax,%eax
     9b4:	e8 17 fd ff ff       	callq  6d0 <__printf_chk@plt>
     9b9:	83 fd 04             	cmp    $0x4,%ebp
     9bc:	0f 84 ae 01 00 00    	je     b70 <main+0x480>
     9c2:	49 8b 04 df          	mov    (%r15,%rbx,8),%rax
     9c6:	48 8b 00             	mov    (%rax),%rax
     9c9:	83 e0 10             	and    $0x10,%eax
     9cc:	0f 85 86 02 00 00    	jne    c58 <main+0x568>
     9d2:	48 85 c0             	test   %rax,%rax
     9d5:	49 8b 47 20          	mov    0x20(%r15),%rax
     9d9:	0f 95 c2             	setne  %dl
     9dc:	4c 85 20             	test   %r12,(%rax)
     9df:	0f 95 c0             	setne  %al
     9e2:	38 c2                	cmp    %al,%dl
     9e4:	74 1a                	je     a00 <main+0x310>
     9e6:	48 8d 35 96 20 00 00 	lea    0x2096(%rip),%rsi        # 2a83 <_IO_stdin_used+0x23>
     9ed:	b9 04 00 00 00       	mov    $0x4,%ecx
     9f2:	89 ea                	mov    %ebp,%edx
     9f4:	bf 01 00 00 00       	mov    $0x1,%edi
     9f9:	31 c0                	xor    %eax,%eax
     9fb:	e8 d0 fc ff ff       	callq  6d0 <__printf_chk@plt>
     a00:	83 fd 05             	cmp    $0x5,%ebp
     a03:	0f 84 67 01 00 00    	je     b70 <main+0x480>
     a09:	49 8b 04 df          	mov    (%r15,%rbx,8),%rax
     a0d:	48 8b 00             	mov    (%rax),%rax
     a10:	83 e0 20             	and    $0x20,%eax
     a13:	0f 85 68 02 00 00    	jne    c81 <main+0x591>
     a19:	48 85 c0             	test   %rax,%rax
     a1c:	49 8b 47 28          	mov    0x28(%r15),%rax
     a20:	0f 95 c2             	setne  %dl
     a23:	4c 85 20             	test   %r12,(%rax)
     a26:	0f 95 c0             	setne  %al
     a29:	38 c2                	cmp    %al,%dl
     a2b:	74 1a                	je     a47 <main+0x357>
     a2d:	48 8d 35 4f 20 00 00 	lea    0x204f(%rip),%rsi        # 2a83 <_IO_stdin_used+0x23>
     a34:	b9 05 00 00 00       	mov    $0x5,%ecx
     a39:	89 ea                	mov    %ebp,%edx
     a3b:	bf 01 00 00 00       	mov    $0x1,%edi
     a40:	31 c0                	xor    %eax,%eax
     a42:	e8 89 fc ff ff       	callq  6d0 <__printf_chk@plt>
     a47:	83 fd 06             	cmp    $0x6,%ebp
     a4a:	0f 84 20 01 00 00    	je     b70 <main+0x480>
     a50:	49 8b 04 df          	mov    (%r15,%rbx,8),%rax
     a54:	48 8b 00             	mov    (%rax),%rax
     a57:	83 e0 40             	and    $0x40,%eax
     a5a:	0f 85 4a 02 00 00    	jne    caa <main+0x5ba>
     a60:	48 85 c0             	test   %rax,%rax
     a63:	49 8b 47 30          	mov    0x30(%r15),%rax
     a67:	0f 95 c2             	setne  %dl
     a6a:	4c 85 20             	test   %r12,(%rax)
     a6d:	0f 95 c0             	setne  %al
     a70:	38 c2                	cmp    %al,%dl
     a72:	74 1a                	je     a8e <main+0x39e>
     a74:	48 8d 35 08 20 00 00 	lea    0x2008(%rip),%rsi        # 2a83 <_IO_stdin_used+0x23>
     a7b:	b9 06 00 00 00       	mov    $0x6,%ecx
     a80:	89 ea                	mov    %ebp,%edx
     a82:	bf 01 00 00 00       	mov    $0x1,%edi
     a87:	31 c0                	xor    %eax,%eax
     a89:	e8 42 fc ff ff       	callq  6d0 <__printf_chk@plt>
     a8e:	83 fd 07             	cmp    $0x7,%ebp
     a91:	0f 84 d9 00 00 00    	je     b70 <main+0x480>
     a97:	49 8b 04 df          	mov    (%r15,%rbx,8),%rax
     a9b:	48 8b 00             	mov    (%rax),%rax
     a9e:	25 80 00 00 00       	and    $0x80,%eax
     aa3:	0f 85 3b 02 00 00    	jne    ce4 <main+0x5f4>
     aa9:	48 85 c0             	test   %rax,%rax
     aac:	49 8b 47 38          	mov    0x38(%r15),%rax
     ab0:	0f 95 c2             	setne  %dl
     ab3:	4c 85 20             	test   %r12,(%rax)
     ab6:	0f 95 c0             	setne  %al
     ab9:	38 c2                	cmp    %al,%dl
     abb:	74 1a                	je     ad7 <main+0x3e7>
     abd:	48 8d 35 bf 1f 00 00 	lea    0x1fbf(%rip),%rsi        # 2a83 <_IO_stdin_used+0x23>
     ac4:	b9 07 00 00 00       	mov    $0x7,%ecx
     ac9:	89 ea                	mov    %ebp,%edx
     acb:	bf 01 00 00 00       	mov    $0x1,%edi
     ad0:	31 c0                	xor    %eax,%eax
     ad2:	e8 f9 fb ff ff       	callq  6d0 <__printf_chk@plt>
     ad7:	83 fd 08             	cmp    $0x8,%ebp
     ada:	0f 84 90 00 00 00    	je     b70 <main+0x480>
     ae0:	49 8b 04 df          	mov    (%r15,%rbx,8),%rax
     ae4:	48 8b 00             	mov    (%rax),%rax
     ae7:	25 00 01 00 00       	and    $0x100,%eax
     aec:	0f 85 1d 02 00 00    	jne    d0f <main+0x61f>
     af2:	48 85 c0             	test   %rax,%rax
     af5:	49 8b 47 40          	mov    0x40(%r15),%rax
     af9:	0f 95 c2             	setne  %dl
     afc:	4c 85 20             	test   %r12,(%rax)
     aff:	0f 95 c0             	setne  %al
     b02:	38 c2                	cmp    %al,%dl
     b04:	74 1a                	je     b20 <main+0x430>
     b06:	48 8d 35 76 1f 00 00 	lea    0x1f76(%rip),%rsi        # 2a83 <_IO_stdin_used+0x23>
     b0d:	b9 08 00 00 00       	mov    $0x8,%ecx
     b12:	89 ea                	mov    %ebp,%edx
     b14:	bf 01 00 00 00       	mov    $0x1,%edi
     b19:	31 c0                	xor    %eax,%eax
     b1b:	e8 b0 fb ff ff       	callq  6d0 <__printf_chk@plt>
     b20:	83 fd 0a             	cmp    $0xa,%ebp
     b23:	75 4b                	jne    b70 <main+0x480>
     b25:	49 8b 04 df          	mov    (%r15,%rbx,8),%rax
     b29:	48 8b 00             	mov    (%rax),%rax
     b2c:	25 00 02 00 00       	and    $0x200,%eax
     b31:	0f 85 03 02 00 00    	jne    d3a <main+0x64a>
     b37:	48 85 c0             	test   %rax,%rax
     b3a:	49 8b 47 48          	mov    0x48(%r15),%rax
     b3e:	0f 95 c2             	setne  %dl
     b41:	4c 85 20             	test   %r12,(%rax)
     b44:	0f 95 c0             	setne  %al
     b47:	38 c2                	cmp    %al,%dl
     b49:	74 25                	je     b70 <main+0x480>
     b4b:	48 8d 35 31 1f 00 00 	lea    0x1f31(%rip),%rsi        # 2a83 <_IO_stdin_used+0x23>
     b52:	b9 09 00 00 00       	mov    $0x9,%ecx
     b57:	ba 0a 00 00 00       	mov    $0xa,%edx
     b5c:	bf 01 00 00 00       	mov    $0x1,%edi
     b61:	31 c0                	xor    %eax,%eax
     b63:	e8 68 fb ff ff       	callq  6d0 <__printf_chk@plt>
     b68:	0f 1f 84 00 00 00 00 	nopl   0x0(%rax,%rax,1)
     b6f:	00 
     b70:	48 83 c3 01          	add    $0x1,%rbx
     b74:	48 83 fb 0a          	cmp    $0xa,%rbx
     b78:	89 dd                	mov    %ebx,%ebp
     b7a:	0f 84 53 01 00 00    	je     cd3 <main+0x5e3>
     b80:	49 8b 04 df          	mov    (%r15,%rbx,8),%rax
     b84:	45 89 f4             	mov    %r14d,%r12d
     b87:	89 d9                	mov    %ebx,%ecx
     b89:	41 d3 e4             	shl    %cl,%r12d
     b8c:	4d 63 e4             	movslq %r12d,%r12
     b8f:	48 8b 00             	mov    (%rax),%rax
     b92:	83 e0 01             	and    $0x1,%eax
     b95:	0f 84 25 fd ff ff    	je     8c0 <main+0x1d0>
     b9b:	48 8d 35 d1 1e 00 00 	lea    0x1ed1(%rip),%rsi        # 2a73 <_IO_stdin_used+0x13>
     ba2:	31 c9                	xor    %ecx,%ecx
     ba4:	89 da                	mov    %ebx,%edx
     ba6:	bf 01 00 00 00       	mov    $0x1,%edi
     bab:	31 c0                	xor    %eax,%eax
     bad:	e8 1e fb ff ff       	callq  6d0 <__printf_chk@plt>
     bb2:	49 8b 04 df          	mov    (%r15,%rbx,8),%rax
     bb6:	48 8b 00             	mov    (%rax),%rax
     bb9:	83 e0 01             	and    $0x1,%eax
     bbc:	e9 ff fc ff ff       	jmpq   8c0 <main+0x1d0>
     bc1:	0f 1f 80 00 00 00 00 	nopl   0x0(%rax)
     bc8:	48 8d 35 a4 1e 00 00 	lea    0x1ea4(%rip),%rsi        # 2a73 <_IO_stdin_used+0x13>
     bcf:	b9 01 00 00 00       	mov    $0x1,%ecx
     bd4:	89 ea                	mov    %ebp,%edx
     bd6:	bf 01 00 00 00       	mov    $0x1,%edi
     bdb:	31 c0                	xor    %eax,%eax
     bdd:	e8 ee fa ff ff       	callq  6d0 <__printf_chk@plt>
     be2:	49 8b 04 df          	mov    (%r15,%rbx,8),%rax
     be6:	48 8b 00             	mov    (%rax),%rax
     be9:	83 e0 02             	and    $0x2,%eax
     bec:	e9 0c fd ff ff       	jmpq   8fd <main+0x20d>
     bf1:	0f 1f 80 00 00 00 00 	nopl   0x0(%rax)
     bf8:	48 8d 35 74 1e 00 00 	lea    0x1e74(%rip),%rsi        # 2a73 <_IO_stdin_used+0x13>
     bff:	b9 02 00 00 00       	mov    $0x2,%ecx
     c04:	89 ea                	mov    %ebp,%edx
     c06:	bf 01 00 00 00       	mov    $0x1,%edi
     c0b:	31 c0                	xor    %eax,%eax
     c0d:	e8 be fa ff ff       	callq  6d0 <__printf_chk@plt>
     c12:	49 8b 04 df          	mov    (%r15,%rbx,8),%rax
     c16:	48 8b 00             	mov    (%rax),%rax
     c19:	83 e0 04             	and    $0x4,%eax
     c1c:	e9 23 fd ff ff       	jmpq   944 <main+0x254>
     c21:	0f 1f 80 00 00 00 00 	nopl   0x0(%rax)
     c28:	48 8d 35 44 1e 00 00 	lea    0x1e44(%rip),%rsi        # 2a73 <_IO_stdin_used+0x13>
     c2f:	b9 03 00 00 00       	mov    $0x3,%ecx
     c34:	89 ea                	mov    %ebp,%edx
     c36:	bf 01 00 00 00       	mov    $0x1,%edi
     c3b:	31 c0                	xor    %eax,%eax
     c3d:	e8 8e fa ff ff       	callq  6d0 <__printf_chk@plt>
     c42:	49 8b 04 df          	mov    (%r15,%rbx,8),%rax
     c46:	48 8b 00             	mov    (%rax),%rax
     c49:	83 e0 08             	and    $0x8,%eax
     c4c:	e9 3a fd ff ff       	jmpq   98b <main+0x29b>
     c51:	0f 1f 80 00 00 00 00 	nopl   0x0(%rax)
     c58:	48 8d 35 14 1e 00 00 	lea    0x1e14(%rip),%rsi        # 2a73 <_IO_stdin_used+0x13>
     c5f:	b9 04 00 00 00       	mov    $0x4,%ecx
     c64:	89 ea                	mov    %ebp,%edx
     c66:	bf 01 00 00 00       	mov    $0x1,%edi
     c6b:	31 c0                	xor    %eax,%eax
     c6d:	e8 5e fa ff ff       	callq  6d0 <__printf_chk@plt>
     c72:	49 8b 04 df          	mov    (%r15,%rbx,8),%rax
     c76:	48 8b 00             	mov    (%rax),%rax
     c79:	83 e0 10             	and    $0x10,%eax
     c7c:	e9 51 fd ff ff       	jmpq   9d2 <main+0x2e2>
     c81:	48 8d 35 eb 1d 00 00 	lea    0x1deb(%rip),%rsi        # 2a73 <_IO_stdin_used+0x13>
     c88:	b9 05 00 00 00       	mov    $0x5,%ecx
     c8d:	89 ea                	mov    %ebp,%edx
     c8f:	bf 01 00 00 00       	mov    $0x1,%edi
     c94:	31 c0                	xor    %eax,%eax
     c96:	e8 35 fa ff ff       	callq  6d0 <__printf_chk@plt>
     c9b:	49 8b 04 df          	mov    (%r15,%rbx,8),%rax
     c9f:	48 8b 00             	mov    (%rax),%rax
     ca2:	83 e0 20             	and    $0x20,%eax
     ca5:	e9 6f fd ff ff       	jmpq   a19 <main+0x329>
     caa:	48 8d 35 c2 1d 00 00 	lea    0x1dc2(%rip),%rsi        # 2a73 <_IO_stdin_used+0x13>
     cb1:	b9 06 00 00 00       	mov    $0x6,%ecx
     cb6:	89 ea                	mov    %ebp,%edx
     cb8:	bf 01 00 00 00       	mov    $0x1,%edi
     cbd:	31 c0                	xor    %eax,%eax
     cbf:	e8 0c fa ff ff       	callq  6d0 <__printf_chk@plt>
     cc4:	49 8b 04 df          	mov    (%r15,%rbx,8),%rax
     cc8:	48 8b 00             	mov    (%rax),%rax
     ccb:	83 e0 40             	and    $0x40,%eax
     cce:	e9 8d fd ff ff       	jmpq   a60 <main+0x370>
     cd3:	48 8d 3d b9 1d 00 00 	lea    0x1db9(%rip),%rdi        # 2a93 <_IO_stdin_used+0x33>
     cda:	e8 c1 f9 ff ff       	callq  6a0 <puts@plt>
     cdf:	e9 c0 fa ff ff       	jmpq   7a4 <main+0xb4>
     ce4:	48 8d 35 88 1d 00 00 	lea    0x1d88(%rip),%rsi        # 2a73 <_IO_stdin_used+0x13>
     ceb:	b9 07 00 00 00       	mov    $0x7,%ecx
     cf0:	89 ea                	mov    %ebp,%edx
     cf2:	bf 01 00 00 00       	mov    $0x1,%edi
     cf7:	31 c0                	xor    %eax,%eax
     cf9:	e8 d2 f9 ff ff       	callq  6d0 <__printf_chk@plt>
     cfe:	49 8b 04 df          	mov    (%r15,%rbx,8),%rax
     d02:	48 8b 00             	mov    (%rax),%rax
     d05:	25 80 00 00 00       	and    $0x80,%eax
     d0a:	e9 9a fd ff ff       	jmpq   aa9 <main+0x3b9>
     d0f:	48 8d 35 5d 1d 00 00 	lea    0x1d5d(%rip),%rsi        # 2a73 <_IO_stdin_used+0x13>
     d16:	b9 08 00 00 00       	mov    $0x8,%ecx
     d1b:	89 ea                	mov    %ebp,%edx
     d1d:	bf 01 00 00 00       	mov    $0x1,%edi
     d22:	31 c0                	xor    %eax,%eax
     d24:	e8 a7 f9 ff ff       	callq  6d0 <__printf_chk@plt>
     d29:	49 8b 04 df          	mov    (%r15,%rbx,8),%rax
     d2d:	48 8b 00             	mov    (%rax),%rax
     d30:	25 00 01 00 00       	and    $0x100,%eax
     d35:	e9 b8 fd ff ff       	jmpq   af2 <main+0x402>
     d3a:	48 8d 35 32 1d 00 00 	lea    0x1d32(%rip),%rsi        # 2a73 <_IO_stdin_used+0x13>
     d41:	b9 09 00 00 00       	mov    $0x9,%ecx
     d46:	ba 0a 00 00 00       	mov    $0xa,%edx
     d4b:	bf 01 00 00 00       	mov    $0x1,%edi
     d50:	31 c0                	xor    %eax,%eax
     d52:	e8 79 f9 ff ff       	callq  6d0 <__printf_chk@plt>
     d57:	49 8b 04 df          	mov    (%r15,%rbx,8),%rax
     d5b:	48 8b 00             	mov    (%rax),%rax
     d5e:	25 00 02 00 00       	and    $0x200,%eax
     d63:	e9 cf fd ff ff       	jmpq   b37 <main+0x447>
     d68:	0f 1f 84 00 00 00 00 	nopl   0x0(%rax,%rax,1)
     d6f:	00 

0000000000000d70 <_start>:
     d70:	31 ed                	xor    %ebp,%ebp
     d72:	49 89 d1             	mov    %rdx,%r9
     d75:	5e                   	pop    %rsi
     d76:	48 89 e2             	mov    %rsp,%rdx
     d79:	48 83 e4 f0          	and    $0xfffffffffffffff0,%rsp
     d7d:	50                   	push   %rax
     d7e:	54                   	push   %rsp
     d7f:	4c 8d 05 ca 1c 00 00 	lea    0x1cca(%rip),%r8        # 2a50 <__libc_csu_fini>
     d86:	48 8d 0d 53 1c 00 00 	lea    0x1c53(%rip),%rcx        # 29e0 <__libc_csu_init>
     d8d:	48 8d 3d 5c f9 ff ff 	lea    -0x6a4(%rip),%rdi        # 6f0 <main>
     d94:	ff 15 46 32 20 00    	callq  *0x203246(%rip)        # 203fe0 <__libc_start_main@GLIBC_2.2.5>
     d9a:	f4                   	hlt    
     d9b:	0f 1f 44 00 00       	nopl   0x0(%rax,%rax,1)

0000000000000da0 <deregister_tm_clones>:
     da0:	48 8d 3d 69 32 20 00 	lea    0x203269(%rip),%rdi        # 204010 <__TMC_END__>
     da7:	55                   	push   %rbp
     da8:	48 8d 05 61 32 20 00 	lea    0x203261(%rip),%rax        # 204010 <__TMC_END__>
     daf:	48 39 f8             	cmp    %rdi,%rax
     db2:	48 89 e5             	mov    %rsp,%rbp
     db5:	74 19                	je     dd0 <deregister_tm_clones+0x30>
     db7:	48 8b 05 1a 32 20 00 	mov    0x20321a(%rip),%rax        # 203fd8 <_ITM_deregisterTMCloneTable>
     dbe:	48 85 c0             	test   %rax,%rax
     dc1:	74 0d                	je     dd0 <deregister_tm_clones+0x30>
     dc3:	5d                   	pop    %rbp
     dc4:	ff e0                	jmpq   *%rax
     dc6:	66 2e 0f 1f 84 00 00 	nopw   %cs:0x0(%rax,%rax,1)
     dcd:	00 00 00 
     dd0:	5d                   	pop    %rbp
     dd1:	c3                   	retq   
     dd2:	0f 1f 40 00          	nopl   0x0(%rax)
     dd6:	66 2e 0f 1f 84 00 00 	nopw   %cs:0x0(%rax,%rax,1)
     ddd:	00 00 00 

0000000000000de0 <register_tm_clones>:
     de0:	48 8d 3d 29 32 20 00 	lea    0x203229(%rip),%rdi        # 204010 <__TMC_END__>
     de7:	48 8d 35 22 32 20 00 	lea    0x203222(%rip),%rsi        # 204010 <__TMC_END__>
     dee:	55                   	push   %rbp
     def:	48 29 fe             	sub    %rdi,%rsi
     df2:	48 89 e5             	mov    %rsp,%rbp
     df5:	48 c1 fe 03          	sar    $0x3,%rsi
     df9:	48 89 f0             	mov    %rsi,%rax
     dfc:	48 c1 e8 3f          	shr    $0x3f,%rax
     e00:	48 01 c6             	add    %rax,%rsi
     e03:	48 d1 fe             	sar    %rsi
     e06:	74 18                	je     e20 <register_tm_clones+0x40>
     e08:	48 8b 05 e1 31 20 00 	mov    0x2031e1(%rip),%rax        # 203ff0 <_ITM_registerTMCloneTable>
     e0f:	48 85 c0             	test   %rax,%rax
     e12:	74 0c                	je     e20 <register_tm_clones+0x40>
     e14:	5d                   	pop    %rbp
     e15:	ff e0                	jmpq   *%rax
     e17:	66 0f 1f 84 00 00 00 	nopw   0x0(%rax,%rax,1)
     e1e:	00 00 
     e20:	5d                   	pop    %rbp
     e21:	c3                   	retq   
     e22:	0f 1f 40 00          	nopl   0x0(%rax)
     e26:	66 2e 0f 1f 84 00 00 	nopw   %cs:0x0(%rax,%rax,1)
     e2d:	00 00 00 

0000000000000e30 <__do_global_dtors_aux>:
     e30:	80 3d d9 31 20 00 00 	cmpb   $0x0,0x2031d9(%rip)        # 204010 <__TMC_END__>
     e37:	75 2f                	jne    e68 <__do_global_dtors_aux+0x38>
     e39:	48 83 3d b7 31 20 00 	cmpq   $0x0,0x2031b7(%rip)        # 203ff8 <__cxa_finalize@GLIBC_2.2.5>
     e40:	00 
     e41:	55                   	push   %rbp
     e42:	48 89 e5             	mov    %rsp,%rbp
     e45:	74 0c                	je     e53 <__do_global_dtors_aux+0x23>
     e47:	48 8b 3d ba 31 20 00 	mov    0x2031ba(%rip),%rdi        # 204008 <__dso_handle>
     e4e:	e8 8d f8 ff ff       	callq  6e0 <__cxa_finalize@plt>
     e53:	e8 48 ff ff ff       	callq  da0 <deregister_tm_clones>
     e58:	c6 05 b1 31 20 00 01 	movb   $0x1,0x2031b1(%rip)        # 204010 <__TMC_END__>
     e5f:	5d                   	pop    %rbp
     e60:	c3                   	retq   
     e61:	0f 1f 80 00 00 00 00 	nopl   0x0(%rax)
     e68:	f3 c3                	repz retq 
     e6a:	66 0f 1f 44 00 00    	nopw   0x0(%rax,%rax,1)

0000000000000e70 <frame_dummy>:
     e70:	55                   	push   %rbp
     e71:	48 89 e5             	mov    %rsp,%rbp
     e74:	5d                   	pop    %rbp
     e75:	e9 66 ff ff ff       	jmpq   de0 <register_tm_clones>
     e7a:	66 0f 1f 44 00 00    	nopw   0x0(%rax,%rax,1)

0000000000000e80 <simpleTest>:
     e80:	53                   	push   %rbx
     e81:	48 bf f0 bd 7e a9 c5 	movabs $0x124836c5a97ebdf0,%rdi
     e88:	36 48 12 
     e8b:	48 81 ec 30 03 00 00 	sub    $0x330,%rsp
     e92:	64 48 8b 04 25 28 00 	mov    %fs:0x28,%rax
     e99:	00 00 
     e9b:	48 89 84 24 28 03 00 	mov    %rax,0x328(%rsp)
     ea2:	00 
     ea3:	31 c0                	xor    %eax,%eax
     ea5:	e8 16 18 00 00       	callq  26c0 <popcount_table>
     eaa:	48 8d 35 f0 1b 00 00 	lea    0x1bf0(%rip),%rsi        # 2aa1 <_IO_stdin_used+0x41>
     eb1:	48 89 c2             	mov    %rax,%rdx
     eb4:	bf 01 00 00 00       	mov    $0x1,%edi
     eb9:	31 c0                	xor    %eax,%eax
     ebb:	48 89 e3             	mov    %rsp,%rbx
     ebe:	e8 0d f8 ff ff       	callq  6d0 <__printf_chk@plt>
     ec3:	48 bf f0 bd 7e a9 c5 	movabs $0x124836c5a97ebdf0,%rdi
     eca:	36 48 12 
     ecd:	e8 ae 18 00 00       	callq  2780 <popcount_shift>
     ed2:	48 8d 35 c8 1b 00 00 	lea    0x1bc8(%rip),%rsi        # 2aa1 <_IO_stdin_used+0x41>
     ed9:	48 89 c2             	mov    %rax,%rdx
     edc:	bf 01 00 00 00       	mov    $0x1,%edi
     ee1:	31 c0                	xor    %eax,%eax
     ee3:	e8 e8 f7 ff ff       	callq  6d0 <__printf_chk@plt>
     ee8:	48 bf f0 bd 7e a9 c5 	movabs $0x124836c5a97ebdf0,%rdi
     eef:	36 48 12 
     ef2:	e8 39 19 00 00       	callq  2830 <popcount_loop>
     ef7:	48 8d 35 a3 1b 00 00 	lea    0x1ba3(%rip),%rsi        # 2aa1 <_IO_stdin_used+0x41>
     efe:	48 89 c2             	mov    %rax,%rdx
     f01:	bf 01 00 00 00       	mov    $0x1,%edi
     f06:	31 c0                	xor    %eax,%eax
     f08:	e8 c3 f7 ff ff       	callq  6d0 <__printf_chk@plt>
     f0d:	48 bf f0 bd 7e a9 c5 	movabs $0x124836c5a97ebdf0,%rdi
     f14:	36 48 12 
     f17:	e8 a4 1a 00 00       	callq  29c0 <popcount_hardware>
     f1c:	48 8d 35 7e 1b 00 00 	lea    0x1b7e(%rip),%rsi        # 2aa1 <_IO_stdin_used+0x41>
     f23:	48 89 c2             	mov    %rax,%rdx
     f26:	bf 01 00 00 00       	mov    $0x1,%edi
     f2b:	31 c0                	xor    %eax,%eax
     f2d:	e8 9e f7 ff ff       	callq  6d0 <__printf_chk@plt>
     f32:	31 c0                	xor    %eax,%eax
     f34:	b9 64 00 00 00       	mov    $0x64,%ecx
     f39:	48 89 df             	mov    %rbx,%rdi
     f3c:	f3 48 ab             	rep stos %rax,%es:(%rdi)
     f3f:	48 89 de             	mov    %rbx,%rsi
     f42:	48 bf f0 bd 7e a9 c5 	movabs $0x124836c5a97ebdf0,%rdi
     f49:	36 48 12 
     f4c:	48 c7 84 24 00 01 00 	movq   $0x2a,0x100(%rsp)
     f53:	00 2a 00 00 00 
     f58:	e8 13 19 00 00       	callq  2870 <popcount_address_table>
     f5d:	48 8b 10             	mov    (%rax),%rdx
     f60:	48 8d 35 3a 1b 00 00 	lea    0x1b3a(%rip),%rsi        # 2aa1 <_IO_stdin_used+0x41>
     f67:	bf 01 00 00 00       	mov    $0x1,%edi
     f6c:	31 c0                	xor    %eax,%eax
     f6e:	e8 5d f7 ff ff       	callq  6d0 <__printf_chk@plt>
     f73:	48 89 de             	mov    %rbx,%rsi
     f76:	48 bf f0 bd 7e a9 c5 	movabs $0x124836c5a97ebdf0,%rdi
     f7d:	36 48 12 
     f80:	e8 6b 19 00 00       	callq  28f0 <popcount_address_shift>
     f85:	48 8b 10             	mov    (%rax),%rdx
     f88:	48 8d 35 12 1b 00 00 	lea    0x1b12(%rip),%rsi        # 2aa1 <_IO_stdin_used+0x41>
     f8f:	bf 01 00 00 00       	mov    $0x1,%edi
     f94:	31 c0                	xor    %eax,%eax
     f96:	e8 35 f7 ff ff       	callq  6d0 <__printf_chk@plt>
     f9b:	48 89 de             	mov    %rbx,%rsi
     f9e:	48 bf f0 bd 7e a9 c5 	movabs $0x124836c5a97ebdf0,%rdi
     fa5:	36 48 12 
     fa8:	e8 c3 19 00 00       	callq  2970 <popcount_address_loop>
     fad:	48 8b 10             	mov    (%rax),%rdx
     fb0:	48 8d 35 ea 1a 00 00 	lea    0x1aea(%rip),%rsi        # 2aa1 <_IO_stdin_used+0x41>
     fb7:	bf 01 00 00 00       	mov    $0x1,%edi
     fbc:	31 c0                	xor    %eax,%eax
     fbe:	e8 0d f7 ff ff       	callq  6d0 <__printf_chk@plt>
     fc3:	48 89 de             	mov    %rbx,%rsi
     fc6:	48 bf f0 bd 7e a9 c5 	movabs $0x124836c5a97ebdf0,%rdi
     fcd:	36 48 12 
     fd0:	e8 fb 19 00 00       	callq  29d0 <popcount_address_hardware>
     fd5:	48 8b 10             	mov    (%rax),%rdx
     fd8:	48 8d 35 c2 1a 00 00 	lea    0x1ac2(%rip),%rsi        # 2aa1 <_IO_stdin_used+0x41>
     fdf:	31 c0                	xor    %eax,%eax
     fe1:	bf 01 00 00 00       	mov    $0x1,%edi
     fe6:	e8 e5 f6 ff ff       	callq  6d0 <__printf_chk@plt>
     feb:	48 8b 84 24 28 03 00 	mov    0x328(%rsp),%rax
     ff2:	00 
     ff3:	64 48 33 04 25 28 00 	xor    %fs:0x28,%rax
     ffa:	00 00 
     ffc:	75 09                	jne    1007 <simpleTest+0x187>
     ffe:	48 81 c4 30 03 00 00 	add    $0x330,%rsp
    1005:	5b                   	pop    %rbx
    1006:	c3                   	retq   
    1007:	e8 a4 f6 ff ff       	callq  6b0 <__stack_chk_fail@plt>
    100c:	0f 1f 40 00          	nopl   0x0(%rax)

0000000000001010 <freeMatrix>:
    1010:	85 f6                	test   %esi,%esi
    1012:	41 54                	push   %r12
    1014:	49 89 fc             	mov    %rdi,%r12
    1017:	55                   	push   %rbp
    1018:	53                   	push   %rbx
    1019:	7e 26                	jle    1041 <freeMatrix+0x31>
    101b:	8d 46 ff             	lea    -0x1(%rsi),%eax
    101e:	48 89 fb             	mov    %rdi,%rbx
    1021:	48 8d 6c c7 08       	lea    0x8(%rdi,%rax,8),%rbp
    1026:	66 2e 0f 1f 84 00 00 	nopw   %cs:0x0(%rax,%rax,1)
    102d:	00 00 00 
    1030:	48 8b 3b             	mov    (%rbx),%rdi
    1033:	48 83 c3 08          	add    $0x8,%rbx
    1037:	e8 44 f6 ff ff       	callq  680 <free@plt>
    103c:	48 39 eb             	cmp    %rbp,%rbx
    103f:	75 ef                	jne    1030 <freeMatrix+0x20>
    1041:	5b                   	pop    %rbx
    1042:	4c 89 e7             	mov    %r12,%rdi
    1045:	5d                   	pop    %rbp
    1046:	41 5c                	pop    %r12
    1048:	e9 33 f6 ff ff       	jmpq   680 <free@plt>
    104d:	0f 1f 00             	nopl   (%rax)

0000000000001050 <size>:
    1050:	48 83 ec 08          	sub    $0x8,%rsp
    1054:	48 8b 3f             	mov    (%rdi),%rdi
    1057:	e8 d4 17 00 00       	callq  2830 <popcount_loop>
    105c:	48 83 c4 08          	add    $0x8,%rsp
    1060:	c3                   	retq   
    1061:	0f 1f 44 00 00       	nopl   0x0(%rax,%rax,1)
    1066:	66 2e 0f 1f 84 00 00 	nopw   %cs:0x0(%rax,%rax,1)
    106d:	00 00 00 

0000000000001070 <unsafeAt>:
    1070:	89 f1                	mov    %esi,%ecx
    1072:	b8 01 00 00 00       	mov    $0x1,%eax
    1077:	48 83 ec 08          	sub    $0x8,%rsp
    107b:	d3 e0                	shl    %cl,%eax
    107d:	48 8d 77 08          	lea    0x8(%rdi),%rsi
    1081:	83 e8 01             	sub    $0x1,%eax
    1084:	48 98                	cltq   
    1086:	48 23 07             	and    (%rdi),%rax
    1089:	48 89 c7             	mov    %rax,%rdi
    108c:	e8 df 18 00 00       	callq  2970 <popcount_address_loop>
    1091:	48 8b 00             	mov    (%rax),%rax
    1094:	48 83 c4 08          	add    $0x8,%rsp
    1098:	c3                   	retq   
    1099:	0f 1f 80 00 00 00 00 	nopl   0x0(%rax)

00000000000010a0 <nonZero>:
    10a0:	89 f1                	mov    %esi,%ecx
    10a2:	b8 01 00 00 00       	mov    $0x1,%eax
    10a7:	d3 e0                	shl    %cl,%eax
    10a9:	48 98                	cltq   
    10ab:	48 85 07             	test   %rax,(%rdi)
    10ae:	0f 95 c0             	setne  %al
    10b1:	c3                   	retq   
    10b2:	0f 1f 40 00          	nopl   0x0(%rax)
    10b6:	66 2e 0f 1f 84 00 00 	nopw   %cs:0x0(%rax,%rax,1)
    10bd:	00 00 00 

00000000000010c0 <at>:
    10c0:	89 f1                	mov    %esi,%ecx
    10c2:	4c 8b 07             	mov    (%rdi),%r8
    10c5:	b8 01 00 00 00       	mov    $0x1,%eax
    10ca:	d3 e0                	shl    %cl,%eax
    10cc:	48 63 f0             	movslq %eax,%rsi
    10cf:	4c 85 c6             	test   %r8,%rsi
    10d2:	75 0c                	jne    10e0 <at+0x20>
    10d4:	31 c0                	xor    %eax,%eax
    10d6:	c3                   	retq   
    10d7:	66 0f 1f 84 00 00 00 	nopw   0x0(%rax,%rax,1)
    10de:	00 00 
    10e0:	48 89 f1             	mov    %rsi,%rcx
    10e3:	53                   	push   %rbx
    10e4:	48 8d 77 08          	lea    0x8(%rdi),%rsi
    10e8:	83 e9 01             	sub    $0x1,%ecx
    10eb:	48 89 d3             	mov    %rdx,%rbx
    10ee:	48 63 f9             	movslq %ecx,%rdi
    10f1:	4c 21 c7             	and    %r8,%rdi
    10f4:	e8 77 18 00 00       	callq  2970 <popcount_address_loop>
    10f9:	48 8b 00             	mov    (%rax),%rax
    10fc:	48 89 03             	mov    %rax,(%rbx)
    10ff:	b8 01 00 00 00       	mov    $0x1,%eax
    1104:	5b                   	pop    %rbx
    1105:	c3                   	retq   
    1106:	66 2e 0f 1f 84 00 00 	nopw   %cs:0x0(%rax,%rax,1)
    110d:	00 00 00 

0000000000001110 <atOr0>:
    1110:	89 f1                	mov    %esi,%ecx
    1112:	4c 8b 07             	mov    (%rdi),%r8
    1115:	ba 01 00 00 00       	mov    $0x1,%edx
    111a:	d3 e2                	shl    %cl,%edx
    111c:	48 63 ca             	movslq %edx,%rcx
    111f:	4c 85 c1             	test   %r8,%rcx
    1122:	75 0c                	jne    1130 <atOr0+0x20>
    1124:	31 c0                	xor    %eax,%eax
    1126:	c3                   	retq   
    1127:	66 0f 1f 84 00 00 00 	nopw   0x0(%rax,%rax,1)
    112e:	00 00 
    1130:	83 ea 01             	sub    $0x1,%edx
    1133:	48 8d 77 08          	lea    0x8(%rdi),%rsi
    1137:	48 83 ec 08          	sub    $0x8,%rsp
    113b:	48 63 fa             	movslq %edx,%rdi
    113e:	4c 21 c7             	and    %r8,%rdi
    1141:	e8 2a 18 00 00       	callq  2970 <popcount_address_loop>
    1146:	48 8b 00             	mov    (%rax),%rax
    1149:	48 83 c4 08          	add    $0x8,%rsp
    114d:	c3                   	retq   
    114e:	66 90                	xchg   %ax,%ax

0000000000001150 <printCArray>:
    1150:	8b 05 be 2e 20 00    	mov    0x202ebe(%rip),%eax        # 204014 <verbose>
    1156:	85 c0                	test   %eax,%eax
    1158:	7e 76                	jle    11d0 <printCArray+0x80>
    115a:	41 54                	push   %r12
    115c:	45 31 e4             	xor    %r12d,%r12d
    115f:	55                   	push   %rbp
    1160:	bd 01 00 00 00       	mov    $0x1,%ebp
    1165:	53                   	push   %rbx
    1166:	48 89 fb             	mov    %rdi,%rbx
    1169:	eb 24                	jmp    118f <printCArray+0x3f>
    116b:	0f 1f 44 00 00       	nopl   0x0(%rax,%rax,1)
    1170:	31 d2                	xor    %edx,%edx
    1172:	48 8d 35 eb 18 00 00 	lea    0x18eb(%rip),%rsi        # 2a64 <_IO_stdin_used+0x4>
    1179:	31 c0                	xor    %eax,%eax
    117b:	bf 01 00 00 00       	mov    $0x1,%edi
    1180:	41 83 c4 01          	add    $0x1,%r12d
    1184:	e8 47 f5 ff ff       	callq  6d0 <__printf_chk@plt>
    1189:	41 83 fc 0a          	cmp    $0xa,%r12d
    118d:	74 31                	je     11c0 <printCArray+0x70>
    118f:	44 89 e1             	mov    %r12d,%ecx
    1192:	48 8b 13             	mov    (%rbx),%rdx
    1195:	89 e8                	mov    %ebp,%eax
    1197:	d3 e0                	shl    %cl,%eax
    1199:	48 63 c8             	movslq %eax,%rcx
    119c:	48 85 d1             	test   %rdx,%rcx
    119f:	74 cf                	je     1170 <printCArray+0x20>
    11a1:	83 e8 01             	sub    $0x1,%eax
    11a4:	48 8d 73 08          	lea    0x8(%rbx),%rsi
    11a8:	48 63 f8             	movslq %eax,%rdi
    11ab:	48 21 d7             	and    %rdx,%rdi
    11ae:	e8 bd 17 00 00       	callq  2970 <popcount_address_loop>
    11b3:	48 8b 10             	mov    (%rax),%rdx
    11b6:	eb ba                	jmp    1172 <printCArray+0x22>
    11b8:	0f 1f 84 00 00 00 00 	nopl   0x0(%rax,%rax,1)
    11bf:	00 
    11c0:	5b                   	pop    %rbx
    11c1:	5d                   	pop    %rbp
    11c2:	41 5c                	pop    %r12
    11c4:	bf 0a 00 00 00       	mov    $0xa,%edi
    11c9:	e9 c2 f4 ff ff       	jmpq   690 <putchar@plt>
    11ce:	66 90                	xchg   %ax,%ax
    11d0:	f3 c3                	repz retq 
    11d2:	0f 1f 40 00          	nopl   0x0(%rax)
    11d6:	66 2e 0f 1f 84 00 00 	nopw   %cs:0x0(%rax,%rax,1)
    11dd:	00 00 00 

00000000000011e0 <printMatrix>:
    11e0:	8b 05 2e 2e 20 00    	mov    0x202e2e(%rip),%eax        # 204014 <verbose>
    11e6:	85 c0                	test   %eax,%eax
    11e8:	0f 8e aa 00 00 00    	jle    1298 <printMatrix+0xb8>
    11ee:	41 56                	push   %r14
    11f0:	41 55                	push   %r13
    11f2:	4c 8d 6f 50          	lea    0x50(%rdi),%r13
    11f6:	41 54                	push   %r12
    11f8:	49 89 fc             	mov    %rdi,%r12
    11fb:	55                   	push   %rbp
    11fc:	bd 01 00 00 00       	mov    $0x1,%ebp
    1201:	53                   	push   %rbx
    1202:	eb 13                	jmp    1217 <printMatrix+0x37>
    1204:	0f 1f 40 00          	nopl   0x0(%rax)
    1208:	49 83 c4 08          	add    $0x8,%r12
    120c:	4d 39 e5             	cmp    %r12,%r13
    120f:	74 72                	je     1283 <printMatrix+0xa3>
    1211:	8b 05 fd 2d 20 00    	mov    0x202dfd(%rip),%eax        # 204014 <verbose>
    1217:	85 c0                	test   %eax,%eax
    1219:	7e ed                	jle    1208 <printMatrix+0x28>
    121b:	49 8b 1c 24          	mov    (%r12),%rbx
    121f:	45 31 f6             	xor    %r14d,%r14d
    1222:	eb 23                	jmp    1247 <printMatrix+0x67>
    1224:	0f 1f 40 00          	nopl   0x0(%rax)
    1228:	31 d2                	xor    %edx,%edx
    122a:	48 8d 35 33 18 00 00 	lea    0x1833(%rip),%rsi        # 2a64 <_IO_stdin_used+0x4>
    1231:	31 c0                	xor    %eax,%eax
    1233:	bf 01 00 00 00       	mov    $0x1,%edi
    1238:	41 83 c6 01          	add    $0x1,%r14d
    123c:	e8 8f f4 ff ff       	callq  6d0 <__printf_chk@plt>
    1241:	41 83 fe 0a          	cmp    $0xa,%r14d
    1245:	74 29                	je     1270 <printMatrix+0x90>
    1247:	44 89 f1             	mov    %r14d,%ecx
    124a:	48 8b 13             	mov    (%rbx),%rdx
    124d:	89 e8                	mov    %ebp,%eax
    124f:	d3 e0                	shl    %cl,%eax
    1251:	48 63 c8             	movslq %eax,%rcx
    1254:	48 85 d1             	test   %rdx,%rcx
    1257:	74 cf                	je     1228 <printMatrix+0x48>
    1259:	83 e8 01             	sub    $0x1,%eax
    125c:	48 8d 73 08          	lea    0x8(%rbx),%rsi
    1260:	48 63 f8             	movslq %eax,%rdi
    1263:	48 21 d7             	and    %rdx,%rdi
    1266:	e8 05 17 00 00       	callq  2970 <popcount_address_loop>
    126b:	48 8b 10             	mov    (%rax),%rdx
    126e:	eb ba                	jmp    122a <printMatrix+0x4a>
    1270:	bf 0a 00 00 00       	mov    $0xa,%edi
    1275:	49 83 c4 08          	add    $0x8,%r12
    1279:	e8 12 f4 ff ff       	callq  690 <putchar@plt>
    127e:	4d 39 e5             	cmp    %r12,%r13
    1281:	75 8e                	jne    1211 <printMatrix+0x31>
    1283:	5b                   	pop    %rbx
    1284:	5d                   	pop    %rbp
    1285:	41 5c                	pop    %r12
    1287:	41 5d                	pop    %r13
    1289:	41 5e                	pop    %r14
    128b:	bf 0a 00 00 00       	mov    $0xa,%edi
    1290:	e9 fb f3 ff ff       	jmpq   690 <putchar@plt>
    1295:	0f 1f 00             	nopl   (%rax)
    1298:	f3 c3                	repz retq 
    129a:	66 0f 1f 44 00 00    	nopw   0x0(%rax,%rax,1)

00000000000012a0 <printDot>:
    12a0:	8b 05 6e 2d 20 00    	mov    0x202d6e(%rip),%eax        # 204014 <verbose>
    12a6:	85 c0                	test   %eax,%eax
    12a8:	0f 8e 82 04 00 00    	jle    1730 <printDot+0x490>
    12ae:	41 56                	push   %r14
    12b0:	41 55                	push   %r13
    12b2:	41 be 01 00 00 00    	mov    $0x1,%r14d
    12b8:	41 54                	push   %r12
    12ba:	55                   	push   %rbp
    12bb:	48 89 fd             	mov    %rdi,%rbp
    12be:	53                   	push   %rbx
    12bf:	48 8d 3d a3 17 00 00 	lea    0x17a3(%rip),%rdi        # 2a69 <_IO_stdin_used+0x9>
    12c6:	bb 01 00 00 00       	mov    $0x1,%ebx
    12cb:	e8 d0 f3 ff ff       	callq  6a0 <puts@plt>
    12d0:	e9 cf 02 00 00       	jmpq   15a4 <printDot+0x304>
    12d5:	0f 1f 00             	nopl   (%rax)
    12d8:	48 8b 55 00          	mov    0x0(%rbp),%rdx
    12dc:	4c 85 2a             	test   %r13,(%rdx)
    12df:	0f 95 c2             	setne  %dl
    12e2:	38 c2                	cmp    %al,%dl
    12e4:	74 18                	je     12fe <printDot+0x5e>
    12e6:	48 8d 35 96 17 00 00 	lea    0x1796(%rip),%rsi        # 2a83 <_IO_stdin_used+0x23>
    12ed:	31 c9                	xor    %ecx,%ecx
    12ef:	44 89 e2             	mov    %r12d,%edx
    12f2:	bf 01 00 00 00       	mov    $0x1,%edi
    12f7:	31 c0                	xor    %eax,%eax
    12f9:	e8 d2 f3 ff ff       	callq  6d0 <__printf_chk@plt>
    12fe:	41 83 fc 01          	cmp    $0x1,%r12d
    1302:	0f 84 98 02 00 00    	je     15a0 <printDot+0x300>
    1308:	48 8b 44 dd 00       	mov    0x0(%rbp,%rbx,8),%rax
    130d:	48 8b 00             	mov    (%rax),%rax
    1310:	83 e0 02             	and    $0x2,%eax
    1313:	0f 85 df 02 00 00    	jne    15f8 <printDot+0x358>
    1319:	48 85 c0             	test   %rax,%rax
    131c:	48 8b 45 08          	mov    0x8(%rbp),%rax
    1320:	0f 95 c2             	setne  %dl
    1323:	4c 85 28             	test   %r13,(%rax)
    1326:	0f 95 c0             	setne  %al
    1329:	38 c2                	cmp    %al,%dl
    132b:	74 1b                	je     1348 <printDot+0xa8>
    132d:	48 8d 35 4f 17 00 00 	lea    0x174f(%rip),%rsi        # 2a83 <_IO_stdin_used+0x23>
    1334:	b9 01 00 00 00       	mov    $0x1,%ecx
    1339:	44 89 e2             	mov    %r12d,%edx
    133c:	bf 01 00 00 00       	mov    $0x1,%edi
    1341:	31 c0                	xor    %eax,%eax
    1343:	e8 88 f3 ff ff       	callq  6d0 <__printf_chk@plt>
    1348:	41 83 fc 02          	cmp    $0x2,%r12d
    134c:	0f 84 4e 02 00 00    	je     15a0 <printDot+0x300>
    1352:	48 8b 44 dd 00       	mov    0x0(%rbp,%rbx,8),%rax
    1357:	48 8b 00             	mov    (%rax),%rax
    135a:	83 e0 04             	and    $0x4,%eax
    135d:	0f 85 c5 02 00 00    	jne    1628 <printDot+0x388>
    1363:	48 85 c0             	test   %rax,%rax
    1366:	48 8b 45 10          	mov    0x10(%rbp),%rax
    136a:	0f 95 c2             	setne  %dl
    136d:	4c 85 28             	test   %r13,(%rax)
    1370:	0f 95 c0             	setne  %al
    1373:	38 c2                	cmp    %al,%dl
    1375:	74 1b                	je     1392 <printDot+0xf2>
    1377:	48 8d 35 05 17 00 00 	lea    0x1705(%rip),%rsi        # 2a83 <_IO_stdin_used+0x23>
    137e:	b9 02 00 00 00       	mov    $0x2,%ecx
    1383:	44 89 e2             	mov    %r12d,%edx
    1386:	bf 01 00 00 00       	mov    $0x1,%edi
    138b:	31 c0                	xor    %eax,%eax
    138d:	e8 3e f3 ff ff       	callq  6d0 <__printf_chk@plt>
    1392:	41 83 fc 03          	cmp    $0x3,%r12d
    1396:	0f 84 04 02 00 00    	je     15a0 <printDot+0x300>
    139c:	48 8b 44 dd 00       	mov    0x0(%rbp,%rbx,8),%rax
    13a1:	48 8b 00             	mov    (%rax),%rax
    13a4:	83 e0 08             	and    $0x8,%eax
    13a7:	0f 85 ab 02 00 00    	jne    1658 <printDot+0x3b8>
    13ad:	48 85 c0             	test   %rax,%rax
    13b0:	48 8b 45 18          	mov    0x18(%rbp),%rax
    13b4:	0f 95 c2             	setne  %dl
    13b7:	4c 85 28             	test   %r13,(%rax)
    13ba:	0f 95 c0             	setne  %al
    13bd:	38 c2                	cmp    %al,%dl
    13bf:	74 1b                	je     13dc <printDot+0x13c>
    13c1:	48 8d 35 bb 16 00 00 	lea    0x16bb(%rip),%rsi        # 2a83 <_IO_stdin_used+0x23>
    13c8:	b9 03 00 00 00       	mov    $0x3,%ecx
    13cd:	44 89 e2             	mov    %r12d,%edx
    13d0:	bf 01 00 00 00       	mov    $0x1,%edi
    13d5:	31 c0                	xor    %eax,%eax
    13d7:	e8 f4 f2 ff ff       	callq  6d0 <__printf_chk@plt>
    13dc:	41 83 fc 04          	cmp    $0x4,%r12d
    13e0:	0f 84 ba 01 00 00    	je     15a0 <printDot+0x300>
    13e6:	48 8b 44 dd 00       	mov    0x0(%rbp,%rbx,8),%rax
    13eb:	48 8b 00             	mov    (%rax),%rax
    13ee:	83 e0 10             	and    $0x10,%eax
    13f1:	0f 85 91 02 00 00    	jne    1688 <printDot+0x3e8>
    13f7:	48 85 c0             	test   %rax,%rax
    13fa:	48 8b 45 20          	mov    0x20(%rbp),%rax
    13fe:	0f 95 c2             	setne  %dl
    1401:	4c 85 28             	test   %r13,(%rax)
    1404:	0f 95 c0             	setne  %al
    1407:	38 c2                	cmp    %al,%dl
    1409:	74 1b                	je     1426 <printDot+0x186>
    140b:	48 8d 35 71 16 00 00 	lea    0x1671(%rip),%rsi        # 2a83 <_IO_stdin_used+0x23>
    1412:	b9 04 00 00 00       	mov    $0x4,%ecx
    1417:	44 89 e2             	mov    %r12d,%edx
    141a:	bf 01 00 00 00       	mov    $0x1,%edi
    141f:	31 c0                	xor    %eax,%eax
    1421:	e8 aa f2 ff ff       	callq  6d0 <__printf_chk@plt>
    1426:	41 83 fc 05          	cmp    $0x5,%r12d
    142a:	0f 84 70 01 00 00    	je     15a0 <printDot+0x300>
    1430:	48 8b 44 dd 00       	mov    0x0(%rbp,%rbx,8),%rax
    1435:	48 8b 00             	mov    (%rax),%rax
    1438:	83 e0 20             	and    $0x20,%eax
    143b:	0f 85 77 02 00 00    	jne    16b8 <printDot+0x418>
    1441:	48 85 c0             	test   %rax,%rax
    1444:	48 8b 45 28          	mov    0x28(%rbp),%rax
    1448:	0f 95 c2             	setne  %dl
    144b:	4c 85 28             	test   %r13,(%rax)
    144e:	0f 95 c0             	setne  %al
    1451:	38 c2                	cmp    %al,%dl
    1453:	74 1b                	je     1470 <printDot+0x1d0>
    1455:	48 8d 35 27 16 00 00 	lea    0x1627(%rip),%rsi        # 2a83 <_IO_stdin_used+0x23>
    145c:	b9 05 00 00 00       	mov    $0x5,%ecx
    1461:	44 89 e2             	mov    %r12d,%edx
    1464:	bf 01 00 00 00       	mov    $0x1,%edi
    1469:	31 c0                	xor    %eax,%eax
    146b:	e8 60 f2 ff ff       	callq  6d0 <__printf_chk@plt>
    1470:	41 83 fc 06          	cmp    $0x6,%r12d
    1474:	0f 84 26 01 00 00    	je     15a0 <printDot+0x300>
    147a:	48 8b 44 dd 00       	mov    0x0(%rbp,%rbx,8),%rax
    147f:	48 8b 00             	mov    (%rax),%rax
    1482:	83 e0 40             	and    $0x40,%eax
    1485:	0f 85 5d 02 00 00    	jne    16e8 <printDot+0x448>
    148b:	48 85 c0             	test   %rax,%rax
    148e:	48 8b 45 30          	mov    0x30(%rbp),%rax
    1492:	0f 95 c2             	setne  %dl
    1495:	4c 85 28             	test   %r13,(%rax)
    1498:	0f 95 c0             	setne  %al
    149b:	38 c2                	cmp    %al,%dl
    149d:	74 1b                	je     14ba <printDot+0x21a>
    149f:	48 8d 35 dd 15 00 00 	lea    0x15dd(%rip),%rsi        # 2a83 <_IO_stdin_used+0x23>
    14a6:	b9 06 00 00 00       	mov    $0x6,%ecx
    14ab:	44 89 e2             	mov    %r12d,%edx
    14ae:	bf 01 00 00 00       	mov    $0x1,%edi
    14b3:	31 c0                	xor    %eax,%eax
    14b5:	e8 16 f2 ff ff       	callq  6d0 <__printf_chk@plt>
    14ba:	41 83 fc 07          	cmp    $0x7,%r12d
    14be:	0f 84 dc 00 00 00    	je     15a0 <printDot+0x300>
    14c4:	48 8b 44 dd 00       	mov    0x0(%rbp,%rbx,8),%rax
    14c9:	48 8b 00             	mov    (%rax),%rax
    14cc:	25 80 00 00 00       	and    $0x80,%eax
    14d1:	0f 85 61 02 00 00    	jne    1738 <printDot+0x498>
    14d7:	48 85 c0             	test   %rax,%rax
    14da:	48 8b 45 38          	mov    0x38(%rbp),%rax
    14de:	0f 95 c2             	setne  %dl
    14e1:	4c 85 28             	test   %r13,(%rax)
    14e4:	0f 95 c0             	setne  %al
    14e7:	38 c2                	cmp    %al,%dl
    14e9:	74 1b                	je     1506 <printDot+0x266>
    14eb:	48 8d 35 91 15 00 00 	lea    0x1591(%rip),%rsi        # 2a83 <_IO_stdin_used+0x23>
    14f2:	b9 07 00 00 00       	mov    $0x7,%ecx
    14f7:	44 89 e2             	mov    %r12d,%edx
    14fa:	bf 01 00 00 00       	mov    $0x1,%edi
    14ff:	31 c0                	xor    %eax,%eax
    1501:	e8 ca f1 ff ff       	callq  6d0 <__printf_chk@plt>
    1506:	41 83 fc 08          	cmp    $0x8,%r12d
    150a:	0f 84 90 00 00 00    	je     15a0 <printDot+0x300>
    1510:	48 8b 44 dd 00       	mov    0x0(%rbp,%rbx,8),%rax
    1515:	48 8b 00             	mov    (%rax),%rax
    1518:	25 00 01 00 00       	and    $0x100,%eax
    151d:	0f 85 45 02 00 00    	jne    1768 <printDot+0x4c8>
    1523:	48 85 c0             	test   %rax,%rax
    1526:	48 8b 45 40          	mov    0x40(%rbp),%rax
    152a:	0f 95 c2             	setne  %dl
    152d:	4c 85 28             	test   %r13,(%rax)
    1530:	0f 95 c0             	setne  %al
    1533:	38 c2                	cmp    %al,%dl
    1535:	74 1b                	je     1552 <printDot+0x2b2>
    1537:	48 8d 35 45 15 00 00 	lea    0x1545(%rip),%rsi        # 2a83 <_IO_stdin_used+0x23>
    153e:	b9 08 00 00 00       	mov    $0x8,%ecx
    1543:	44 89 e2             	mov    %r12d,%edx
    1546:	bf 01 00 00 00       	mov    $0x1,%edi
    154b:	31 c0                	xor    %eax,%eax
    154d:	e8 7e f1 ff ff       	callq  6d0 <__printf_chk@plt>
    1552:	41 83 fc 0a          	cmp    $0xa,%r12d
    1556:	75 48                	jne    15a0 <printDot+0x300>
    1558:	48 8b 44 dd 00       	mov    0x0(%rbp,%rbx,8),%rax
    155d:	48 8b 00             	mov    (%rax),%rax
    1560:	25 00 02 00 00       	and    $0x200,%eax
    1565:	0f 85 2d 02 00 00    	jne    1798 <printDot+0x4f8>
    156b:	48 85 c0             	test   %rax,%rax
    156e:	48 8b 45 48          	mov    0x48(%rbp),%rax
    1572:	0f 95 c2             	setne  %dl
    1575:	4c 85 28             	test   %r13,(%rax)
    1578:	0f 95 c0             	setne  %al
    157b:	38 c2                	cmp    %al,%dl
    157d:	74 21                	je     15a0 <printDot+0x300>
    157f:	48 8d 35 fd 14 00 00 	lea    0x14fd(%rip),%rsi        # 2a83 <_IO_stdin_used+0x23>
    1586:	b9 09 00 00 00       	mov    $0x9,%ecx
    158b:	ba 0a 00 00 00       	mov    $0xa,%edx
    1590:	bf 01 00 00 00       	mov    $0x1,%edi
    1595:	31 c0                	xor    %eax,%eax
    1597:	e8 34 f1 ff ff       	callq  6d0 <__printf_chk@plt>
    159c:	0f 1f 40 00          	nopl   0x0(%rax)
    15a0:	48 83 c3 01          	add    $0x1,%rbx
    15a4:	48 83 fb 0a          	cmp    $0xa,%rbx
    15a8:	41 89 dc             	mov    %ebx,%r12d
    15ab:	0f 84 67 01 00 00    	je     1718 <printDot+0x478>
    15b1:	48 8b 44 dd 00       	mov    0x0(%rbp,%rbx,8),%rax
    15b6:	45 89 f5             	mov    %r14d,%r13d
    15b9:	89 d9                	mov    %ebx,%ecx
    15bb:	41 d3 e5             	shl    %cl,%r13d
    15be:	4d 63 ed             	movslq %r13d,%r13
    15c1:	48 8b 00             	mov    (%rax),%rax
    15c4:	83 e0 01             	and    $0x1,%eax
    15c7:	0f 84 0b fd ff ff    	je     12d8 <printDot+0x38>
    15cd:	48 8d 35 9f 14 00 00 	lea    0x149f(%rip),%rsi        # 2a73 <_IO_stdin_used+0x13>
    15d4:	31 c9                	xor    %ecx,%ecx
    15d6:	89 da                	mov    %ebx,%edx
    15d8:	bf 01 00 00 00       	mov    $0x1,%edi
    15dd:	31 c0                	xor    %eax,%eax
    15df:	e8 ec f0 ff ff       	callq  6d0 <__printf_chk@plt>
    15e4:	48 8b 44 dd 00       	mov    0x0(%rbp,%rbx,8),%rax
    15e9:	48 8b 00             	mov    (%rax),%rax
    15ec:	83 e0 01             	and    $0x1,%eax
    15ef:	e9 e4 fc ff ff       	jmpq   12d8 <printDot+0x38>
    15f4:	0f 1f 40 00          	nopl   0x0(%rax)
    15f8:	48 8d 35 74 14 00 00 	lea    0x1474(%rip),%rsi        # 2a73 <_IO_stdin_used+0x13>
    15ff:	b9 01 00 00 00       	mov    $0x1,%ecx
    1604:	44 89 e2             	mov    %r12d,%edx
    1607:	bf 01 00 00 00       	mov    $0x1,%edi
    160c:	31 c0                	xor    %eax,%eax
    160e:	e8 bd f0 ff ff       	callq  6d0 <__printf_chk@plt>
    1613:	48 8b 44 dd 00       	mov    0x0(%rbp,%rbx,8),%rax
    1618:	48 8b 00             	mov    (%rax),%rax
    161b:	83 e0 02             	and    $0x2,%eax
    161e:	e9 f6 fc ff ff       	jmpq   1319 <printDot+0x79>
    1623:	0f 1f 44 00 00       	nopl   0x0(%rax,%rax,1)
    1628:	48 8d 35 44 14 00 00 	lea    0x1444(%rip),%rsi        # 2a73 <_IO_stdin_used+0x13>
    162f:	b9 02 00 00 00       	mov    $0x2,%ecx
    1634:	44 89 e2             	mov    %r12d,%edx
    1637:	bf 01 00 00 00       	mov    $0x1,%edi
    163c:	31 c0                	xor    %eax,%eax
    163e:	e8 8d f0 ff ff       	callq  6d0 <__printf_chk@plt>
    1643:	48 8b 44 dd 00       	mov    0x0(%rbp,%rbx,8),%rax
    1648:	48 8b 00             	mov    (%rax),%rax
    164b:	83 e0 04             	and    $0x4,%eax
    164e:	e9 10 fd ff ff       	jmpq   1363 <printDot+0xc3>
    1653:	0f 1f 44 00 00       	nopl   0x0(%rax,%rax,1)
    1658:	48 8d 35 14 14 00 00 	lea    0x1414(%rip),%rsi        # 2a73 <_IO_stdin_used+0x13>
    165f:	b9 03 00 00 00       	mov    $0x3,%ecx
    1664:	44 89 e2             	mov    %r12d,%edx
    1667:	bf 01 00 00 00       	mov    $0x1,%edi
    166c:	31 c0                	xor    %eax,%eax
    166e:	e8 5d f0 ff ff       	callq  6d0 <__printf_chk@plt>
    1673:	48 8b 44 dd 00       	mov    0x0(%rbp,%rbx,8),%rax
    1678:	48 8b 00             	mov    (%rax),%rax
    167b:	83 e0 08             	and    $0x8,%eax
    167e:	e9 2a fd ff ff       	jmpq   13ad <printDot+0x10d>
    1683:	0f 1f 44 00 00       	nopl   0x0(%rax,%rax,1)
    1688:	48 8d 35 e4 13 00 00 	lea    0x13e4(%rip),%rsi        # 2a73 <_IO_stdin_used+0x13>
    168f:	b9 04 00 00 00       	mov    $0x4,%ecx
    1694:	44 89 e2             	mov    %r12d,%edx
    1697:	bf 01 00 00 00       	mov    $0x1,%edi
    169c:	31 c0                	xor    %eax,%eax
    169e:	e8 2d f0 ff ff       	callq  6d0 <__printf_chk@plt>
    16a3:	48 8b 44 dd 00       	mov    0x0(%rbp,%rbx,8),%rax
    16a8:	48 8b 00             	mov    (%rax),%rax
    16ab:	83 e0 10             	and    $0x10,%eax
    16ae:	e9 44 fd ff ff       	jmpq   13f7 <printDot+0x157>
    16b3:	0f 1f 44 00 00       	nopl   0x0(%rax,%rax,1)
    16b8:	48 8d 35 b4 13 00 00 	lea    0x13b4(%rip),%rsi        # 2a73 <_IO_stdin_used+0x13>
    16bf:	b9 05 00 00 00       	mov    $0x5,%ecx
    16c4:	44 89 e2             	mov    %r12d,%edx
    16c7:	bf 01 00 00 00       	mov    $0x1,%edi
    16cc:	31 c0                	xor    %eax,%eax
    16ce:	e8 fd ef ff ff       	callq  6d0 <__printf_chk@plt>
    16d3:	48 8b 44 dd 00       	mov    0x0(%rbp,%rbx,8),%rax
    16d8:	48 8b 00             	mov    (%rax),%rax
    16db:	83 e0 20             	and    $0x20,%eax
    16de:	e9 5e fd ff ff       	jmpq   1441 <printDot+0x1a1>
    16e3:	0f 1f 44 00 00       	nopl   0x0(%rax,%rax,1)
    16e8:	48 8d 35 84 13 00 00 	lea    0x1384(%rip),%rsi        # 2a73 <_IO_stdin_used+0x13>
    16ef:	b9 06 00 00 00       	mov    $0x6,%ecx
    16f4:	44 89 e2             	mov    %r12d,%edx
    16f7:	bf 01 00 00 00       	mov    $0x1,%edi
    16fc:	31 c0                	xor    %eax,%eax
    16fe:	e8 cd ef ff ff       	callq  6d0 <__printf_chk@plt>
    1703:	48 8b 44 dd 00       	mov    0x0(%rbp,%rbx,8),%rax
    1708:	48 8b 00             	mov    (%rax),%rax
    170b:	83 e0 40             	and    $0x40,%eax
    170e:	e9 78 fd ff ff       	jmpq   148b <printDot+0x1eb>
    1713:	0f 1f 44 00 00       	nopl   0x0(%rax,%rax,1)
    1718:	5b                   	pop    %rbx
    1719:	5d                   	pop    %rbp
    171a:	41 5c                	pop    %r12
    171c:	41 5d                	pop    %r13
    171e:	41 5e                	pop    %r14
    1720:	48 8d 3d 6c 13 00 00 	lea    0x136c(%rip),%rdi        # 2a93 <_IO_stdin_used+0x33>
    1727:	e9 74 ef ff ff       	jmpq   6a0 <puts@plt>
    172c:	0f 1f 40 00          	nopl   0x0(%rax)
    1730:	f3 c3                	repz retq 
    1732:	66 0f 1f 44 00 00    	nopw   0x0(%rax,%rax,1)
    1738:	48 8d 35 34 13 00 00 	lea    0x1334(%rip),%rsi        # 2a73 <_IO_stdin_used+0x13>
    173f:	b9 07 00 00 00       	mov    $0x7,%ecx
    1744:	44 89 e2             	mov    %r12d,%edx
    1747:	bf 01 00 00 00       	mov    $0x1,%edi
    174c:	31 c0                	xor    %eax,%eax
    174e:	e8 7d ef ff ff       	callq  6d0 <__printf_chk@plt>
    1753:	48 8b 44 dd 00       	mov    0x0(%rbp,%rbx,8),%rax
    1758:	48 8b 00             	mov    (%rax),%rax
    175b:	25 80 00 00 00       	and    $0x80,%eax
    1760:	e9 72 fd ff ff       	jmpq   14d7 <printDot+0x237>
    1765:	0f 1f 00             	nopl   (%rax)
    1768:	48 8d 35 04 13 00 00 	lea    0x1304(%rip),%rsi        # 2a73 <_IO_stdin_used+0x13>
    176f:	b9 08 00 00 00       	mov    $0x8,%ecx
    1774:	44 89 e2             	mov    %r12d,%edx
    1777:	bf 01 00 00 00       	mov    $0x1,%edi
    177c:	31 c0                	xor    %eax,%eax
    177e:	e8 4d ef ff ff       	callq  6d0 <__printf_chk@plt>
    1783:	48 8b 44 dd 00       	mov    0x0(%rbp,%rbx,8),%rax
    1788:	48 8b 00             	mov    (%rax),%rax
    178b:	25 00 01 00 00       	and    $0x100,%eax
    1790:	e9 8e fd ff ff       	jmpq   1523 <printDot+0x283>
    1795:	0f 1f 00             	nopl   (%rax)
    1798:	48 8d 35 d4 12 00 00 	lea    0x12d4(%rip),%rsi        # 2a73 <_IO_stdin_used+0x13>
    179f:	b9 09 00 00 00       	mov    $0x9,%ecx
    17a4:	ba 0a 00 00 00       	mov    $0xa,%edx
    17a9:	bf 01 00 00 00       	mov    $0x1,%edi
    17ae:	31 c0                	xor    %eax,%eax
    17b0:	e8 1b ef ff ff       	callq  6d0 <__printf_chk@plt>
    17b5:	48 8b 44 dd 00       	mov    0x0(%rbp,%rbx,8),%rax
    17ba:	48 8b 00             	mov    (%rax),%rax
    17bd:	25 00 02 00 00       	and    $0x200,%eax
    17c2:	e9 a4 fd ff ff       	jmpq   156b <printDot+0x2cb>
    17c7:	66 0f 1f 84 00 00 00 	nopw   0x0(%rax,%rax,1)
    17ce:	00 00 

00000000000017d0 <printArray>:
    17d0:	8b 05 3e 28 20 00    	mov    0x20283e(%rip),%eax        # 204014 <verbose>
    17d6:	85 c0                	test   %eax,%eax
    17d8:	7e 46                	jle    1820 <printArray+0x50>
    17da:	41 54                	push   %r12
    17dc:	4c 8d 67 50          	lea    0x50(%rdi),%r12
    17e0:	55                   	push   %rbp
    17e1:	48 8d 2d 7c 12 00 00 	lea    0x127c(%rip),%rbp        # 2a64 <_IO_stdin_used+0x4>
    17e8:	53                   	push   %rbx
    17e9:	48 89 fb             	mov    %rdi,%rbx
    17ec:	0f 1f 40 00          	nopl   0x0(%rax)
    17f0:	48 8b 13             	mov    (%rbx),%rdx
    17f3:	31 c0                	xor    %eax,%eax
    17f5:	48 89 ee             	mov    %rbp,%rsi
    17f8:	bf 01 00 00 00       	mov    $0x1,%edi
    17fd:	48 83 c3 08          	add    $0x8,%rbx
    1801:	e8 ca ee ff ff       	callq  6d0 <__printf_chk@plt>
    1806:	49 39 dc             	cmp    %rbx,%r12
    1809:	75 e5                	jne    17f0 <printArray+0x20>
    180b:	5b                   	pop    %rbx
    180c:	5d                   	pop    %rbp
    180d:	41 5c                	pop    %r12
    180f:	bf 0a 00 00 00       	mov    $0xa,%edi
    1814:	e9 77 ee ff ff       	jmpq   690 <putchar@plt>
    1819:	0f 1f 80 00 00 00 00 	nopl   0x0(%rax)
    1820:	f3 c3                	repz retq 
    1822:	0f 1f 40 00          	nopl   0x0(%rax)
    1826:	66 2e 0f 1f 84 00 00 	nopw   %cs:0x0(%rax,%rax,1)
    182d:	00 00 00 

0000000000001830 <dot>:
    1830:	41 57                	push   %r15
    1832:	41 56                	push   %r14
    1834:	41 55                	push   %r13
    1836:	41 54                	push   %r12
    1838:	55                   	push   %rbp
    1839:	53                   	push   %rbx
    183a:	48 83 ec 18          	sub    $0x18,%rsp
    183e:	48 8b 1f             	mov    (%rdi),%rbx
    1841:	48 23 1e             	and    (%rsi),%rbx
    1844:	0f 84 86 00 00 00    	je     18d0 <dot+0xa0>
    184a:	49 89 f4             	mov    %rsi,%r12
    184d:	48 89 fa             	mov    %rdi,%rdx
    1850:	45 31 f6             	xor    %r14d,%r14d
    1853:	45 31 ed             	xor    %r13d,%r13d
    1856:	eb 11                	jmp    1869 <dot+0x39>
    1858:	0f 1f 84 00 00 00 00 	nopl   0x0(%rax,%rax,1)
    185f:	00 
    1860:	41 83 c6 01          	add    $0x1,%r14d
    1864:	48 d1 eb             	shr    %rbx
    1867:	74 52                	je     18bb <dot+0x8b>
    1869:	f6 c3 01             	test   $0x1,%bl
    186c:	74 f2                	je     1860 <dot+0x30>
    186e:	44 89 f1             	mov    %r14d,%ecx
    1871:	bd 01 00 00 00       	mov    $0x1,%ebp
    1876:	48 8b 3a             	mov    (%rdx),%rdi
    1879:	d3 e5                	shl    %cl,%ebp
    187b:	48 8d 72 08          	lea    0x8(%rdx),%rsi
    187f:	48 89 54 24 08       	mov    %rdx,0x8(%rsp)
    1884:	83 ed 01             	sub    $0x1,%ebp
    1887:	41 83 c6 01          	add    $0x1,%r14d
    188b:	48 63 ed             	movslq %ebp,%rbp
    188e:	48 21 ef             	and    %rbp,%rdi
    1891:	e8 da 10 00 00       	callq  2970 <popcount_address_loop>
    1896:	49 8b 3c 24          	mov    (%r12),%rdi
    189a:	49 8d 74 24 08       	lea    0x8(%r12),%rsi
    189f:	4c 8b 38             	mov    (%rax),%r15
    18a2:	48 21 ef             	and    %rbp,%rdi
    18a5:	e8 c6 10 00 00       	callq  2970 <popcount_address_loop>
    18aa:	4c 0f af 38          	imul   (%rax),%r15
    18ae:	48 8b 54 24 08       	mov    0x8(%rsp),%rdx
    18b3:	4d 01 fd             	add    %r15,%r13
    18b6:	48 d1 eb             	shr    %rbx
    18b9:	75 ae                	jne    1869 <dot+0x39>
    18bb:	48 83 c4 18          	add    $0x18,%rsp
    18bf:	4c 89 e8             	mov    %r13,%rax
    18c2:	5b                   	pop    %rbx
    18c3:	5d                   	pop    %rbp
    18c4:	41 5c                	pop    %r12
    18c6:	41 5d                	pop    %r13
    18c8:	41 5e                	pop    %r14
    18ca:	41 5f                	pop    %r15
    18cc:	c3                   	retq   
    18cd:	0f 1f 00             	nopl   (%rax)
    18d0:	45 31 ed             	xor    %r13d,%r13d
    18d3:	eb e6                	jmp    18bb <dot+0x8b>
    18d5:	90                   	nop
    18d6:	66 2e 0f 1f 84 00 00 	nopw   %cs:0x0(%rax,%rax,1)
    18dd:	00 00 00 

00000000000018e0 <trans>:
    18e0:	41 57                	push   %r15
    18e2:	41 56                	push   %r14
    18e4:	45 31 f6             	xor    %r14d,%r14d
    18e7:	41 55                	push   %r13
    18e9:	41 54                	push   %r12
    18eb:	49 89 f4             	mov    %rsi,%r12
    18ee:	55                   	push   %rbp
    18ef:	53                   	push   %rbx
    18f0:	48 83 ec 28          	sub    $0x28,%rsp
    18f4:	48 89 7c 24 10       	mov    %rdi,0x10(%rsp)
    18f9:	48 89 54 24 18       	mov    %rdx,0x18(%rsp)
    18fe:	66 90                	xchg   %ax,%ax
    1900:	48 8b 44 24 10       	mov    0x10(%rsp),%rax
    1905:	45 31 ff             	xor    %r15d,%r15d
    1908:	4a 8b 14 30          	mov    (%rax,%r14,1),%rdx
    190c:	48 8b 1a             	mov    (%rdx),%rbx
    190f:	49 23 1c 24          	and    (%r12),%rbx
    1913:	74 6e                	je     1983 <trans+0xa3>
    1915:	45 31 ed             	xor    %r13d,%r13d
    1918:	eb 0f                	jmp    1929 <trans+0x49>
    191a:	66 0f 1f 44 00 00    	nopw   0x0(%rax,%rax,1)
    1920:	41 83 c5 01          	add    $0x1,%r13d
    1924:	48 d1 eb             	shr    %rbx
    1927:	74 5a                	je     1983 <trans+0xa3>
    1929:	f6 c3 01             	test   $0x1,%bl
    192c:	74 f2                	je     1920 <trans+0x40>
    192e:	44 89 e9             	mov    %r13d,%ecx
    1931:	bd 01 00 00 00       	mov    $0x1,%ebp
    1936:	48 8b 3a             	mov    (%rdx),%rdi
    1939:	d3 e5                	shl    %cl,%ebp
    193b:	48 8d 72 08          	lea    0x8(%rdx),%rsi
    193f:	48 89 54 24 08       	mov    %rdx,0x8(%rsp)
    1944:	83 ed 01             	sub    $0x1,%ebp
    1947:	41 83 c5 01          	add    $0x1,%r13d
    194b:	48 63 ed             	movslq %ebp,%rbp
    194e:	48 21 ef             	and    %rbp,%rdi
    1951:	e8 1a 10 00 00       	callq  2970 <popcount_address_loop>
    1956:	49 8b 3c 24          	mov    (%r12),%rdi
    195a:	4c 8b 10             	mov    (%rax),%r10
    195d:	49 8d 74 24 08       	lea    0x8(%r12),%rsi
    1962:	48 21 ef             	and    %rbp,%rdi
    1965:	4c 89 14 24          	mov    %r10,(%rsp)
    1969:	e8 02 10 00 00       	callq  2970 <popcount_address_loop>
    196e:	4c 8b 14 24          	mov    (%rsp),%r10
    1972:	48 8b 54 24 08       	mov    0x8(%rsp),%rdx
    1977:	4c 0f af 10          	imul   (%rax),%r10
    197b:	4d 01 d7             	add    %r10,%r15
    197e:	48 d1 eb             	shr    %rbx
    1981:	75 a6                	jne    1929 <trans+0x49>
    1983:	48 8b 44 24 18       	mov    0x18(%rsp),%rax
    1988:	4e 89 3c 30          	mov    %r15,(%rax,%r14,1)
    198c:	49 83 c6 08          	add    $0x8,%r14
    1990:	49 83 fe 50          	cmp    $0x50,%r14
    1994:	0f 85 66 ff ff ff    	jne    1900 <trans+0x20>
    199a:	48 83 c4 28          	add    $0x28,%rsp
    199e:	5b                   	pop    %rbx
    199f:	5d                   	pop    %rbp
    19a0:	41 5c                	pop    %r12
    19a2:	41 5d                	pop    %r13
    19a4:	41 5e                	pop    %r14
    19a6:	41 5f                	pop    %r15
    19a8:	c3                   	retq   
    19a9:	0f 1f 80 00 00 00 00 	nopl   0x0(%rax)

00000000000019b0 <compact>:
    19b0:	53                   	push   %rbx
    19b1:	48 89 fb             	mov    %rdi,%rbx
    19b4:	8d 7e 01             	lea    0x1(%rsi),%edi
    19b7:	48 63 ff             	movslq %edi,%rdi
    19ba:	48 c1 e7 03          	shl    $0x3,%rdi
    19be:	e8 fd ec ff ff       	callq  6c0 <malloc@plt>
    19c3:	48 8b 13             	mov    (%rbx),%rdx
    19c6:	48 85 d2             	test   %rdx,%rdx
    19c9:	0f 84 01 01 00 00    	je     1ad0 <compact+0x120>
    19cf:	48 89 50 08          	mov    %rdx,0x8(%rax)
    19d3:	b9 01 00 00 00       	mov    $0x1,%ecx
    19d8:	ba 00 04 00 00       	mov    $0x400,%edx
    19dd:	48 8b 73 08          	mov    0x8(%rbx),%rsi
    19e1:	48 d1 ea             	shr    %rdx
    19e4:	48 85 f6             	test   %rsi,%rsi
    19e7:	74 0e                	je     19f7 <compact+0x47>
    19e9:	48 63 f9             	movslq %ecx,%rdi
    19ec:	80 ce 04             	or     $0x4,%dh
    19ef:	83 c1 01             	add    $0x1,%ecx
    19f2:	48 89 74 f8 08       	mov    %rsi,0x8(%rax,%rdi,8)
    19f7:	48 8b 73 10          	mov    0x10(%rbx),%rsi
    19fb:	48 d1 ea             	shr    %rdx
    19fe:	48 85 f6             	test   %rsi,%rsi
    1a01:	74 0e                	je     1a11 <compact+0x61>
    1a03:	48 63 f9             	movslq %ecx,%rdi
    1a06:	80 ce 04             	or     $0x4,%dh
    1a09:	83 c1 01             	add    $0x1,%ecx
    1a0c:	48 89 74 f8 08       	mov    %rsi,0x8(%rax,%rdi,8)
    1a11:	48 8b 73 18          	mov    0x18(%rbx),%rsi
    1a15:	48 d1 ea             	shr    %rdx
    1a18:	48 85 f6             	test   %rsi,%rsi
    1a1b:	74 0e                	je     1a2b <compact+0x7b>
    1a1d:	48 63 f9             	movslq %ecx,%rdi
    1a20:	80 ce 04             	or     $0x4,%dh
    1a23:	83 c1 01             	add    $0x1,%ecx
    1a26:	48 89 74 f8 08       	mov    %rsi,0x8(%rax,%rdi,8)
    1a2b:	48 8b 73 20          	mov    0x20(%rbx),%rsi
    1a2f:	48 d1 ea             	shr    %rdx
    1a32:	48 85 f6             	test   %rsi,%rsi
    1a35:	74 0e                	je     1a45 <compact+0x95>
    1a37:	48 63 f9             	movslq %ecx,%rdi
    1a3a:	80 ce 04             	or     $0x4,%dh
    1a3d:	83 c1 01             	add    $0x1,%ecx
    1a40:	48 89 74 f8 08       	mov    %rsi,0x8(%rax,%rdi,8)
    1a45:	48 8b 73 28          	mov    0x28(%rbx),%rsi
    1a49:	48 d1 ea             	shr    %rdx
    1a4c:	48 85 f6             	test   %rsi,%rsi
    1a4f:	74 0e                	je     1a5f <compact+0xaf>
    1a51:	48 63 f9             	movslq %ecx,%rdi
    1a54:	80 ce 04             	or     $0x4,%dh
    1a57:	83 c1 01             	add    $0x1,%ecx
    1a5a:	48 89 74 f8 08       	mov    %rsi,0x8(%rax,%rdi,8)
    1a5f:	48 8b 73 30          	mov    0x30(%rbx),%rsi
    1a63:	48 d1 ea             	shr    %rdx
    1a66:	48 85 f6             	test   %rsi,%rsi
    1a69:	74 0e                	je     1a79 <compact+0xc9>
    1a6b:	48 63 f9             	movslq %ecx,%rdi
    1a6e:	80 ce 04             	or     $0x4,%dh
    1a71:	83 c1 01             	add    $0x1,%ecx
    1a74:	48 89 74 f8 08       	mov    %rsi,0x8(%rax,%rdi,8)
    1a79:	48 8b 73 38          	mov    0x38(%rbx),%rsi
    1a7d:	48 d1 ea             	shr    %rdx
    1a80:	48 85 f6             	test   %rsi,%rsi
    1a83:	74 0e                	je     1a93 <compact+0xe3>
    1a85:	48 63 f9             	movslq %ecx,%rdi
    1a88:	80 ce 04             	or     $0x4,%dh
    1a8b:	83 c1 01             	add    $0x1,%ecx
    1a8e:	48 89 74 f8 08       	mov    %rsi,0x8(%rax,%rdi,8)
    1a93:	48 8b 73 40          	mov    0x40(%rbx),%rsi
    1a97:	48 d1 ea             	shr    %rdx
    1a9a:	48 85 f6             	test   %rsi,%rsi
    1a9d:	74 0e                	je     1aad <compact+0xfd>
    1a9f:	48 63 f9             	movslq %ecx,%rdi
    1aa2:	80 ce 04             	or     $0x4,%dh
    1aa5:	83 c1 01             	add    $0x1,%ecx
    1aa8:	48 89 74 f8 08       	mov    %rsi,0x8(%rax,%rdi,8)
    1aad:	48 8b 73 48          	mov    0x48(%rbx),%rsi
    1ab1:	48 d1 ea             	shr    %rdx
    1ab4:	48 85 f6             	test   %rsi,%rsi
    1ab7:	74 0b                	je     1ac4 <compact+0x114>
    1ab9:	48 63 c9             	movslq %ecx,%rcx
    1abc:	80 ce 04             	or     $0x4,%dh
    1abf:	48 89 74 c8 08       	mov    %rsi,0x8(%rax,%rcx,8)
    1ac4:	48 d1 ea             	shr    %rdx
    1ac7:	48 89 10             	mov    %rdx,(%rax)
    1aca:	5b                   	pop    %rbx
    1acb:	c3                   	retq   
    1acc:	0f 1f 40 00          	nopl   0x0(%rax)
    1ad0:	31 c9                	xor    %ecx,%ecx
    1ad2:	31 d2                	xor    %edx,%edx
    1ad4:	e9 04 ff ff ff       	jmpq   19dd <compact+0x2d>
    1ad9:	0f 1f 80 00 00 00 00 	nopl   0x0(%rax)

0000000000001ae0 <mul>:
    1ae0:	41 57                	push   %r15
    1ae2:	41 56                	push   %r14
    1ae4:	49 89 f7             	mov    %rsi,%r15
    1ae7:	41 55                	push   %r13
    1ae9:	41 54                	push   %r12
    1aeb:	55                   	push   %rbp
    1aec:	53                   	push   %rbx
    1aed:	48 89 fd             	mov    %rdi,%rbp
    1af0:	bf 50 00 00 00       	mov    $0x50,%edi
    1af5:	48 81 ec 98 00 00 00 	sub    $0x98,%rsp
    1afc:	64 48 8b 04 25 28 00 	mov    %fs:0x28,%rax
    1b03:	00 00 
    1b05:	48 89 84 24 88 00 00 	mov    %rax,0x88(%rsp)
    1b0c:	00 
    1b0d:	31 c0                	xor    %eax,%eax
    1b0f:	e8 ac eb ff ff       	callq  6c0 <malloc@plt>
    1b14:	48 89 44 24 28       	mov    %rax,0x28(%rsp)
    1b19:	48 89 44 24 18       	mov    %rax,0x18(%rsp)
    1b1e:	48 8d 45 50          	lea    0x50(%rbp),%rax
    1b22:	48 89 44 24 20       	mov    %rax,0x20(%rsp)
    1b27:	48 8d 44 24 30       	lea    0x30(%rsp),%rax
    1b2c:	48 89 44 24 08       	mov    %rax,0x8(%rsp)
    1b31:	0f 1f 80 00 00 00 00 	nopl   0x0(%rax)
    1b38:	45 31 f6             	xor    %r14d,%r14d
    1b3b:	c7 44 24 10 00 00 00 	movl   $0x0,0x10(%rsp)
    1b42:	00 
    1b43:	0f 1f 44 00 00       	nopl   0x0(%rax,%rax,1)
    1b48:	48 8b 75 00          	mov    0x0(%rbp),%rsi
    1b4c:	31 d2                	xor    %edx,%edx
    1b4e:	44 89 f3             	mov    %r14d,%ebx
    1b51:	f6 06 01             	testb  $0x1,(%rsi)
    1b54:	74 0d                	je     1b63 <mul+0x83>
    1b56:	48 83 c6 08          	add    $0x8,%rsi
    1b5a:	31 ff                	xor    %edi,%edi
    1b5c:	e8 0f 0e 00 00       	callq  2970 <popcount_address_loop>
    1b61:	8b 10                	mov    (%rax),%edx
    1b63:	49 8b 37             	mov    (%r15),%rsi
    1b66:	89 d9                	mov    %ebx,%ecx
    1b68:	41 bd 01 00 00 00    	mov    $0x1,%r13d
    1b6e:	41 d3 e5             	shl    %cl,%r13d
    1b71:	45 31 e4             	xor    %r12d,%r12d
    1b74:	49 63 dd             	movslq %r13d,%rbx
    1b77:	48 8b 3e             	mov    (%rsi),%rdi
    1b7a:	48 85 df             	test   %rbx,%rdi
    1b7d:	74 20                	je     1b9f <mul+0xbf>
    1b7f:	41 8d 45 ff          	lea    -0x1(%r13),%eax
    1b83:	48 83 c6 08          	add    $0x8,%rsi
    1b87:	89 54 24 14          	mov    %edx,0x14(%rsp)
    1b8b:	48 98                	cltq   
    1b8d:	48 21 c7             	and    %rax,%rdi
    1b90:	e8 db 0d 00 00       	callq  2970 <popcount_address_loop>
    1b95:	8b 54 24 14          	mov    0x14(%rsp),%edx
    1b99:	0f af 10             	imul   (%rax),%edx
    1b9c:	41 89 d4             	mov    %edx,%r12d
    1b9f:	48 8b 75 00          	mov    0x0(%rbp),%rsi
    1ba3:	31 d2                	xor    %edx,%edx
    1ba5:	48 8b 3e             	mov    (%rsi),%rdi
    1ba8:	40 f6 c7 02          	test   $0x2,%dil
    1bac:	74 0e                	je     1bbc <mul+0xdc>
    1bae:	48 83 c6 08          	add    $0x8,%rsi
    1bb2:	83 e7 01             	and    $0x1,%edi
    1bb5:	e8 b6 0d 00 00       	callq  2970 <popcount_address_loop>
    1bba:	8b 10                	mov    (%rax),%edx
    1bbc:	49 8b 77 08          	mov    0x8(%r15),%rsi
    1bc0:	48 8b 3e             	mov    (%rsi),%rdi
    1bc3:	48 85 fb             	test   %rdi,%rbx
    1bc6:	74 20                	je     1be8 <mul+0x108>
    1bc8:	41 8d 45 ff          	lea    -0x1(%r13),%eax
    1bcc:	48 83 c6 08          	add    $0x8,%rsi
    1bd0:	89 54 24 14          	mov    %edx,0x14(%rsp)
    1bd4:	48 98                	cltq   
    1bd6:	48 21 c7             	and    %rax,%rdi
    1bd9:	e8 92 0d 00 00       	callq  2970 <popcount_address_loop>
    1bde:	8b 54 24 14          	mov    0x14(%rsp),%edx
    1be2:	0f af 10             	imul   (%rax),%edx
    1be5:	41 01 d4             	add    %edx,%r12d
    1be8:	48 8b 75 00          	mov    0x0(%rbp),%rsi
    1bec:	31 d2                	xor    %edx,%edx
    1bee:	48 8b 3e             	mov    (%rsi),%rdi
    1bf1:	40 f6 c7 04          	test   $0x4,%dil
    1bf5:	74 0e                	je     1c05 <mul+0x125>
    1bf7:	48 83 c6 08          	add    $0x8,%rsi
    1bfb:	83 e7 03             	and    $0x3,%edi
    1bfe:	e8 6d 0d 00 00       	callq  2970 <popcount_address_loop>
    1c03:	8b 10                	mov    (%rax),%edx
    1c05:	49 8b 77 10          	mov    0x10(%r15),%rsi
    1c09:	48 8b 3e             	mov    (%rsi),%rdi
    1c0c:	48 85 fb             	test   %rdi,%rbx
    1c0f:	74 20                	je     1c31 <mul+0x151>
    1c11:	41 8d 45 ff          	lea    -0x1(%r13),%eax
    1c15:	48 83 c6 08          	add    $0x8,%rsi
    1c19:	89 54 24 14          	mov    %edx,0x14(%rsp)
    1c1d:	48 98                	cltq   
    1c1f:	48 21 c7             	and    %rax,%rdi
    1c22:	e8 49 0d 00 00       	callq  2970 <popcount_address_loop>
    1c27:	8b 54 24 14          	mov    0x14(%rsp),%edx
    1c2b:	0f af 10             	imul   (%rax),%edx
    1c2e:	41 01 d4             	add    %edx,%r12d
    1c31:	48 8b 75 00          	mov    0x0(%rbp),%rsi
    1c35:	31 d2                	xor    %edx,%edx
    1c37:	48 8b 3e             	mov    (%rsi),%rdi
    1c3a:	40 f6 c7 08          	test   $0x8,%dil
    1c3e:	74 0e                	je     1c4e <mul+0x16e>
    1c40:	48 83 c6 08          	add    $0x8,%rsi
    1c44:	83 e7 07             	and    $0x7,%edi
    1c47:	e8 24 0d 00 00       	callq  2970 <popcount_address_loop>
    1c4c:	8b 10                	mov    (%rax),%edx
    1c4e:	49 8b 77 18          	mov    0x18(%r15),%rsi
    1c52:	48 8b 3e             	mov    (%rsi),%rdi
    1c55:	48 85 fb             	test   %rdi,%rbx
    1c58:	74 20                	je     1c7a <mul+0x19a>
    1c5a:	41 8d 45 ff          	lea    -0x1(%r13),%eax
    1c5e:	48 83 c6 08          	add    $0x8,%rsi
    1c62:	89 54 24 14          	mov    %edx,0x14(%rsp)
    1c66:	48 98                	cltq   
    1c68:	48 21 c7             	and    %rax,%rdi
    1c6b:	e8 00 0d 00 00       	callq  2970 <popcount_address_loop>
    1c70:	8b 54 24 14          	mov    0x14(%rsp),%edx
    1c74:	0f af 10             	imul   (%rax),%edx
    1c77:	41 01 d4             	add    %edx,%r12d
    1c7a:	48 8b 75 00          	mov    0x0(%rbp),%rsi
    1c7e:	31 d2                	xor    %edx,%edx
    1c80:	48 8b 3e             	mov    (%rsi),%rdi
    1c83:	40 f6 c7 10          	test   $0x10,%dil
    1c87:	74 0e                	je     1c97 <mul+0x1b7>
    1c89:	48 83 c6 08          	add    $0x8,%rsi
    1c8d:	83 e7 0f             	and    $0xf,%edi
    1c90:	e8 db 0c 00 00       	callq  2970 <popcount_address_loop>
    1c95:	8b 10                	mov    (%rax),%edx
    1c97:	49 8b 77 20          	mov    0x20(%r15),%rsi
    1c9b:	48 8b 3e             	mov    (%rsi),%rdi
    1c9e:	48 85 fb             	test   %rdi,%rbx
    1ca1:	74 20                	je     1cc3 <mul+0x1e3>
    1ca3:	41 8d 45 ff          	lea    -0x1(%r13),%eax
    1ca7:	48 83 c6 08          	add    $0x8,%rsi
    1cab:	89 54 24 14          	mov    %edx,0x14(%rsp)
    1caf:	48 98                	cltq   
    1cb1:	48 21 c7             	and    %rax,%rdi
    1cb4:	e8 b7 0c 00 00       	callq  2970 <popcount_address_loop>
    1cb9:	8b 54 24 14          	mov    0x14(%rsp),%edx
    1cbd:	0f af 10             	imul   (%rax),%edx
    1cc0:	41 01 d4             	add    %edx,%r12d
    1cc3:	48 8b 75 00          	mov    0x0(%rbp),%rsi
    1cc7:	31 d2                	xor    %edx,%edx
    1cc9:	48 8b 3e             	mov    (%rsi),%rdi
    1ccc:	40 f6 c7 20          	test   $0x20,%dil
    1cd0:	74 0e                	je     1ce0 <mul+0x200>
    1cd2:	48 83 c6 08          	add    $0x8,%rsi
    1cd6:	83 e7 1f             	and    $0x1f,%edi
    1cd9:	e8 92 0c 00 00       	callq  2970 <popcount_address_loop>
    1cde:	8b 10                	mov    (%rax),%edx
    1ce0:	49 8b 77 28          	mov    0x28(%r15),%rsi
    1ce4:	48 8b 3e             	mov    (%rsi),%rdi
    1ce7:	48 85 fb             	test   %rdi,%rbx
    1cea:	74 20                	je     1d0c <mul+0x22c>
    1cec:	41 8d 45 ff          	lea    -0x1(%r13),%eax
    1cf0:	48 83 c6 08          	add    $0x8,%rsi
    1cf4:	89 54 24 14          	mov    %edx,0x14(%rsp)
    1cf8:	48 98                	cltq   
    1cfa:	48 21 c7             	and    %rax,%rdi
    1cfd:	e8 6e 0c 00 00       	callq  2970 <popcount_address_loop>
    1d02:	8b 54 24 14          	mov    0x14(%rsp),%edx
    1d06:	0f af 10             	imul   (%rax),%edx
    1d09:	41 01 d4             	add    %edx,%r12d
    1d0c:	48 8b 75 00          	mov    0x0(%rbp),%rsi
    1d10:	31 d2                	xor    %edx,%edx
    1d12:	48 8b 3e             	mov    (%rsi),%rdi
    1d15:	40 f6 c7 40          	test   $0x40,%dil
    1d19:	74 0e                	je     1d29 <mul+0x249>
    1d1b:	48 83 c6 08          	add    $0x8,%rsi
    1d1f:	83 e7 3f             	and    $0x3f,%edi
    1d22:	e8 49 0c 00 00       	callq  2970 <popcount_address_loop>
    1d27:	8b 10                	mov    (%rax),%edx
    1d29:	49 8b 77 30          	mov    0x30(%r15),%rsi
    1d2d:	48 8b 3e             	mov    (%rsi),%rdi
    1d30:	48 85 fb             	test   %rdi,%rbx
    1d33:	74 20                	je     1d55 <mul+0x275>
    1d35:	41 8d 45 ff          	lea    -0x1(%r13),%eax
    1d39:	48 83 c6 08          	add    $0x8,%rsi
    1d3d:	89 54 24 14          	mov    %edx,0x14(%rsp)
    1d41:	48 98                	cltq   
    1d43:	48 21 c7             	and    %rax,%rdi
    1d46:	e8 25 0c 00 00       	callq  2970 <popcount_address_loop>
    1d4b:	8b 54 24 14          	mov    0x14(%rsp),%edx
    1d4f:	0f af 10             	imul   (%rax),%edx
    1d52:	41 01 d4             	add    %edx,%r12d
    1d55:	48 8b 75 00          	mov    0x0(%rbp),%rsi
    1d59:	31 d2                	xor    %edx,%edx
    1d5b:	48 8b 3e             	mov    (%rsi),%rdi
    1d5e:	40 f6 c7 80          	test   $0x80,%dil
    1d62:	74 0e                	je     1d72 <mul+0x292>
    1d64:	48 83 c6 08          	add    $0x8,%rsi
    1d68:	83 e7 7f             	and    $0x7f,%edi
    1d6b:	e8 00 0c 00 00       	callq  2970 <popcount_address_loop>
    1d70:	8b 10                	mov    (%rax),%edx
    1d72:	49 8b 77 38          	mov    0x38(%r15),%rsi
    1d76:	48 8b 3e             	mov    (%rsi),%rdi
    1d79:	48 85 fb             	test   %rdi,%rbx
    1d7c:	74 20                	je     1d9e <mul+0x2be>
    1d7e:	41 8d 45 ff          	lea    -0x1(%r13),%eax
    1d82:	48 83 c6 08          	add    $0x8,%rsi
    1d86:	89 54 24 14          	mov    %edx,0x14(%rsp)
    1d8a:	48 98                	cltq   
    1d8c:	48 21 c7             	and    %rax,%rdi
    1d8f:	e8 dc 0b 00 00       	callq  2970 <popcount_address_loop>
    1d94:	8b 54 24 14          	mov    0x14(%rsp),%edx
    1d98:	0f af 10             	imul   (%rax),%edx
    1d9b:	41 01 d4             	add    %edx,%r12d
    1d9e:	48 8b 75 00          	mov    0x0(%rbp),%rsi
    1da2:	31 d2                	xor    %edx,%edx
    1da4:	48 8b 3e             	mov    (%rsi),%rdi
    1da7:	f7 c7 00 01 00 00    	test   $0x100,%edi
    1dad:	74 0f                	je     1dbe <mul+0x2de>
    1daf:	48 83 c6 08          	add    $0x8,%rsi
    1db3:	40 0f b6 ff          	movzbl %dil,%edi
    1db7:	e8 b4 0b 00 00       	callq  2970 <popcount_address_loop>
    1dbc:	8b 10                	mov    (%rax),%edx
    1dbe:	49 8b 77 40          	mov    0x40(%r15),%rsi
    1dc2:	48 8b 3e             	mov    (%rsi),%rdi
    1dc5:	48 85 fb             	test   %rdi,%rbx
    1dc8:	74 20                	je     1dea <mul+0x30a>
    1dca:	41 8d 45 ff          	lea    -0x1(%r13),%eax
    1dce:	48 83 c6 08          	add    $0x8,%rsi
    1dd2:	89 54 24 14          	mov    %edx,0x14(%rsp)
    1dd6:	48 98                	cltq   
    1dd8:	48 21 c7             	and    %rax,%rdi
    1ddb:	e8 90 0b 00 00       	callq  2970 <popcount_address_loop>
    1de0:	8b 54 24 14          	mov    0x14(%rsp),%edx
    1de4:	0f af 10             	imul   (%rax),%edx
    1de7:	41 01 d4             	add    %edx,%r12d
    1dea:	48 8b 75 00          	mov    0x0(%rbp),%rsi
    1dee:	31 d2                	xor    %edx,%edx
    1df0:	48 8b 3e             	mov    (%rsi),%rdi
    1df3:	f7 c7 00 02 00 00    	test   $0x200,%edi
    1df9:	74 11                	je     1e0c <mul+0x32c>
    1dfb:	48 83 c6 08          	add    $0x8,%rsi
    1dff:	81 e7 ff 01 00 00    	and    $0x1ff,%edi
    1e05:	e8 66 0b 00 00       	callq  2970 <popcount_address_loop>
    1e0a:	8b 10                	mov    (%rax),%edx
    1e0c:	49 8b 77 48          	mov    0x48(%r15),%rsi
    1e10:	48 8b 06             	mov    (%rsi),%rax
    1e13:	48 85 c3             	test   %rax,%rbx
    1e16:	74 21                	je     1e39 <mul+0x359>
    1e18:	41 83 ed 01          	sub    $0x1,%r13d
    1e1c:	48 83 c6 08          	add    $0x8,%rsi
    1e20:	89 54 24 14          	mov    %edx,0x14(%rsp)
    1e24:	49 63 fd             	movslq %r13d,%rdi
    1e27:	48 21 c7             	and    %rax,%rdi
    1e2a:	e8 41 0b 00 00       	callq  2970 <popcount_address_loop>
    1e2f:	8b 54 24 14          	mov    0x14(%rsp),%edx
    1e33:	0f af 10             	imul   (%rax),%edx
    1e36:	41 01 d4             	add    %edx,%r12d
    1e39:	48 8b 4c 24 08       	mov    0x8(%rsp),%rcx
    1e3e:	49 63 c4             	movslq %r12d,%rax
    1e41:	4a 89 04 f1          	mov    %rax,(%rcx,%r14,8)
    1e45:	8b 44 24 10          	mov    0x10(%rsp),%eax
    1e49:	83 c0 01             	add    $0x1,%eax
    1e4c:	45 85 e4             	test   %r12d,%r12d
    1e4f:	74 0d                	je     1e5e <mul+0x37e>
    1e51:	8b 54 24 10          	mov    0x10(%rsp),%edx
    1e55:	89 44 24 10          	mov    %eax,0x10(%rsp)
    1e59:	83 c2 02             	add    $0x2,%edx
    1e5c:	89 d0                	mov    %edx,%eax
    1e5e:	49 83 c6 01          	add    $0x1,%r14
    1e62:	49 83 fe 0a          	cmp    $0xa,%r14
    1e66:	0f 85 dc fc ff ff    	jne    1b48 <mul+0x68>
    1e6c:	48 98                	cltq   
    1e6e:	48 8d 3c c5 00 00 00 	lea    0x0(,%rax,8),%rdi
    1e75:	00 
    1e76:	e8 45 e8 ff ff       	callq  6c0 <malloc@plt>
    1e7b:	48 8b 54 24 30       	mov    0x30(%rsp),%rdx
    1e80:	48 85 d2             	test   %rdx,%rdx
    1e83:	0f 84 e7 01 00 00    	je     2070 <mul+0x590>
    1e89:	48 89 50 08          	mov    %rdx,0x8(%rax)
    1e8d:	41 be 09 00 00 00    	mov    $0x9,%r14d
    1e93:	41 bc 08 00 00 00    	mov    $0x8,%r12d
    1e99:	41 bb 07 00 00 00    	mov    $0x7,%r11d
    1e9f:	41 ba 06 00 00 00    	mov    $0x6,%r10d
    1ea5:	41 b9 05 00 00 00    	mov    $0x5,%r9d
    1eab:	41 b8 04 00 00 00    	mov    $0x4,%r8d
    1eb1:	bf 03 00 00 00       	mov    $0x3,%edi
    1eb6:	ba 00 01 00 00       	mov    $0x100,%edx
    1ebb:	41 bd 00 03 00 00    	mov    $0x300,%r13d
    1ec1:	be 02 00 00 00       	mov    $0x2,%esi
    1ec6:	b9 01 00 00 00       	mov    $0x1,%ecx
    1ecb:	48 8b 5c 24 38       	mov    0x38(%rsp),%rbx
    1ed0:	48 85 db             	test   %rbx,%rbx
    1ed3:	74 1f                	je     1ef4 <mul+0x414>
    1ed5:	48 89 5c c8 08       	mov    %rbx,0x8(%rax,%rcx,8)
    1eda:	4c 89 ea             	mov    %r13,%rdx
    1edd:	48 63 ce             	movslq %esi,%rcx
    1ee0:	89 fe                	mov    %edi,%esi
    1ee2:	44 89 c7             	mov    %r8d,%edi
    1ee5:	45 89 c8             	mov    %r9d,%r8d
    1ee8:	45 89 d1             	mov    %r10d,%r9d
    1eeb:	45 89 da             	mov    %r11d,%r10d
    1eee:	45 89 e3             	mov    %r12d,%r11d
    1ef1:	45 89 f4             	mov    %r14d,%r12d
    1ef4:	48 8b 5c 24 40       	mov    0x40(%rsp),%rbx
    1ef9:	48 85 db             	test   %rbx,%rbx
    1efc:	74 1c                	je     1f1a <mul+0x43a>
    1efe:	48 89 5c c8 08       	mov    %rbx,0x8(%rax,%rcx,8)
    1f03:	80 ce 04             	or     $0x4,%dh
    1f06:	48 63 ce             	movslq %esi,%rcx
    1f09:	89 fe                	mov    %edi,%esi
    1f0b:	44 89 c7             	mov    %r8d,%edi
    1f0e:	45 89 c8             	mov    %r9d,%r8d
    1f11:	45 89 d1             	mov    %r10d,%r9d
    1f14:	45 89 da             	mov    %r11d,%r10d
    1f17:	45 89 e3             	mov    %r12d,%r11d
    1f1a:	48 8b 5c 24 48       	mov    0x48(%rsp),%rbx
    1f1f:	48 d1 ea             	shr    %rdx
    1f22:	48 85 db             	test   %rbx,%rbx
    1f25:	74 19                	je     1f40 <mul+0x460>
    1f27:	48 89 5c c8 08       	mov    %rbx,0x8(%rax,%rcx,8)
    1f2c:	80 ce 04             	or     $0x4,%dh
    1f2f:	48 63 ce             	movslq %esi,%rcx
    1f32:	89 fe                	mov    %edi,%esi
    1f34:	44 89 c7             	mov    %r8d,%edi
    1f37:	45 89 c8             	mov    %r9d,%r8d
    1f3a:	45 89 d1             	mov    %r10d,%r9d
    1f3d:	45 89 da             	mov    %r11d,%r10d
    1f40:	4c 8b 5c 24 50       	mov    0x50(%rsp),%r11
    1f45:	48 d1 ea             	shr    %rdx
    1f48:	4d 85 db             	test   %r11,%r11
    1f4b:	74 16                	je     1f63 <mul+0x483>
    1f4d:	4c 89 5c c8 08       	mov    %r11,0x8(%rax,%rcx,8)
    1f52:	80 ce 04             	or     $0x4,%dh
    1f55:	48 63 ce             	movslq %esi,%rcx
    1f58:	89 fe                	mov    %edi,%esi
    1f5a:	44 89 c7             	mov    %r8d,%edi
    1f5d:	45 89 c8             	mov    %r9d,%r8d
    1f60:	45 89 d1             	mov    %r10d,%r9d
    1f63:	4c 8b 54 24 58       	mov    0x58(%rsp),%r10
    1f68:	48 d1 ea             	shr    %rdx
    1f6b:	4d 85 d2             	test   %r10,%r10
    1f6e:	74 13                	je     1f83 <mul+0x4a3>
    1f70:	4c 89 54 c8 08       	mov    %r10,0x8(%rax,%rcx,8)
    1f75:	80 ce 04             	or     $0x4,%dh
    1f78:	48 63 ce             	movslq %esi,%rcx
    1f7b:	89 fe                	mov    %edi,%esi
    1f7d:	44 89 c7             	mov    %r8d,%edi
    1f80:	45 89 c8             	mov    %r9d,%r8d
    1f83:	4c 8b 4c 24 60       	mov    0x60(%rsp),%r9
    1f88:	48 d1 ea             	shr    %rdx
    1f8b:	4d 85 c9             	test   %r9,%r9
    1f8e:	74 10                	je     1fa0 <mul+0x4c0>
    1f90:	4c 89 4c c8 08       	mov    %r9,0x8(%rax,%rcx,8)
    1f95:	80 ce 04             	or     $0x4,%dh
    1f98:	48 63 ce             	movslq %esi,%rcx
    1f9b:	89 fe                	mov    %edi,%esi
    1f9d:	44 89 c7             	mov    %r8d,%edi
    1fa0:	4c 8b 44 24 68       	mov    0x68(%rsp),%r8
    1fa5:	48 d1 ea             	shr    %rdx
    1fa8:	4d 85 c0             	test   %r8,%r8
    1fab:	74 0d                	je     1fba <mul+0x4da>
    1fad:	4c 89 44 c8 08       	mov    %r8,0x8(%rax,%rcx,8)
    1fb2:	80 ce 04             	or     $0x4,%dh
    1fb5:	48 63 ce             	movslq %esi,%rcx
    1fb8:	89 fe                	mov    %edi,%esi
    1fba:	48 8b 7c 24 70       	mov    0x70(%rsp),%rdi
    1fbf:	48 d1 ea             	shr    %rdx
    1fc2:	48 85 ff             	test   %rdi,%rdi
    1fc5:	74 0b                	je     1fd2 <mul+0x4f2>
    1fc7:	48 89 7c c8 08       	mov    %rdi,0x8(%rax,%rcx,8)
    1fcc:	80 ce 04             	or     $0x4,%dh
    1fcf:	48 63 ce             	movslq %esi,%rcx
    1fd2:	48 8b 74 24 78       	mov    0x78(%rsp),%rsi
    1fd7:	48 85 f6             	test   %rsi,%rsi
    1fda:	74 64                	je     2040 <mul+0x560>
    1fdc:	48 89 74 c8 08       	mov    %rsi,0x8(%rax,%rcx,8)
    1fe1:	48 8b 4c 24 18       	mov    0x18(%rsp),%rcx
    1fe6:	48 c1 ea 02          	shr    $0x2,%rdx
    1fea:	80 ce 02             	or     $0x2,%dh
    1fed:	48 83 c5 08          	add    $0x8,%rbp
    1ff1:	48 89 10             	mov    %rdx,(%rax)
    1ff4:	48 89 01             	mov    %rax,(%rcx)
    1ff7:	48 83 c1 08          	add    $0x8,%rcx
    1ffb:	48 3b 6c 24 20       	cmp    0x20(%rsp),%rbp
    2000:	48 89 4c 24 18       	mov    %rcx,0x18(%rsp)
    2005:	0f 85 2d fb ff ff    	jne    1b38 <mul+0x58>
    200b:	48 8b 8c 24 88 00 00 	mov    0x88(%rsp),%rcx
    2012:	00 
    2013:	64 48 33 0c 25 28 00 	xor    %fs:0x28,%rcx
    201a:	00 00 
    201c:	48 8b 44 24 28       	mov    0x28(%rsp),%rax
    2021:	0f 85 86 00 00 00    	jne    20ad <mul+0x5cd>
    2027:	48 81 c4 98 00 00 00 	add    $0x98,%rsp
    202e:	5b                   	pop    %rbx
    202f:	5d                   	pop    %rbp
    2030:	41 5c                	pop    %r12
    2032:	41 5d                	pop    %r13
    2034:	41 5e                	pop    %r14
    2036:	41 5f                	pop    %r15
    2038:	c3                   	retq   
    2039:	0f 1f 80 00 00 00 00 	nopl   0x0(%rax)
    2040:	48 8b 4c 24 18       	mov    0x18(%rsp),%rcx
    2045:	48 c1 ea 02          	shr    $0x2,%rdx
    2049:	48 83 c5 08          	add    $0x8,%rbp
    204d:	48 89 10             	mov    %rdx,(%rax)
    2050:	48 89 01             	mov    %rax,(%rcx)
    2053:	48 83 c1 08          	add    $0x8,%rcx
    2057:	48 39 6c 24 20       	cmp    %rbp,0x20(%rsp)
    205c:	48 89 4c 24 18       	mov    %rcx,0x18(%rsp)
    2061:	0f 85 d1 fa ff ff    	jne    1b38 <mul+0x58>
    2067:	eb a2                	jmp    200b <mul+0x52b>
    2069:	0f 1f 80 00 00 00 00 	nopl   0x0(%rax)
    2070:	41 be 08 00 00 00    	mov    $0x8,%r14d
    2076:	41 bc 07 00 00 00    	mov    $0x7,%r12d
    207c:	41 bb 06 00 00 00    	mov    $0x6,%r11d
    2082:	41 ba 05 00 00 00    	mov    $0x5,%r10d
    2088:	41 b9 04 00 00 00    	mov    $0x4,%r9d
    208e:	41 b8 03 00 00 00    	mov    $0x3,%r8d
    2094:	bf 02 00 00 00       	mov    $0x2,%edi
    2099:	31 d2                	xor    %edx,%edx
    209b:	41 bd 00 02 00 00    	mov    $0x200,%r13d
    20a1:	be 01 00 00 00       	mov    $0x1,%esi
    20a6:	31 c9                	xor    %ecx,%ecx
    20a8:	e9 1e fe ff ff       	jmpq   1ecb <mul+0x3eb>
    20ad:	e8 fe e5 ff ff       	callq  6b0 <__stack_chk_fail@plt>
    20b2:	0f 1f 40 00          	nopl   0x0(%rax)
    20b6:	66 2e 0f 1f 84 00 00 	nopw   %cs:0x0(%rax,%rax,1)
    20bd:	00 00 00 

00000000000020c0 <trace>:
    20c0:	55                   	push   %rbp
    20c1:	53                   	push   %rbx
    20c2:	31 ed                	xor    %ebp,%ebp
    20c4:	48 89 fb             	mov    %rdi,%rbx
    20c7:	48 83 ec 08          	sub    $0x8,%rsp
    20cb:	48 8b 37             	mov    (%rdi),%rsi
    20ce:	f6 06 01             	testb  $0x1,(%rsi)
    20d1:	74 0e                	je     20e1 <trace+0x21>
    20d3:	48 83 c6 08          	add    $0x8,%rsi
    20d7:	31 ff                	xor    %edi,%edi
    20d9:	e8 92 08 00 00       	callq  2970 <popcount_address_loop>
    20de:	48 8b 28             	mov    (%rax),%rbp
    20e1:	48 8b 73 08          	mov    0x8(%rbx),%rsi
    20e5:	48 8b 3e             	mov    (%rsi),%rdi
    20e8:	40 f6 c7 02          	test   $0x2,%dil
    20ec:	74 0f                	je     20fd <trace+0x3d>
    20ee:	48 83 c6 08          	add    $0x8,%rsi
    20f2:	83 e7 01             	and    $0x1,%edi
    20f5:	e8 76 08 00 00       	callq  2970 <popcount_address_loop>
    20fa:	48 03 28             	add    (%rax),%rbp
    20fd:	48 8b 73 10          	mov    0x10(%rbx),%rsi
    2101:	48 8b 3e             	mov    (%rsi),%rdi
    2104:	40 f6 c7 04          	test   $0x4,%dil
    2108:	74 0f                	je     2119 <trace+0x59>
    210a:	48 83 c6 08          	add    $0x8,%rsi
    210e:	83 e7 03             	and    $0x3,%edi
    2111:	e8 5a 08 00 00       	callq  2970 <popcount_address_loop>
    2116:	48 03 28             	add    (%rax),%rbp
    2119:	48 8b 73 18          	mov    0x18(%rbx),%rsi
    211d:	48 8b 3e             	mov    (%rsi),%rdi
    2120:	40 f6 c7 08          	test   $0x8,%dil
    2124:	74 0f                	je     2135 <trace+0x75>
    2126:	48 83 c6 08          	add    $0x8,%rsi
    212a:	83 e7 07             	and    $0x7,%edi
    212d:	e8 3e 08 00 00       	callq  2970 <popcount_address_loop>
    2132:	48 03 28             	add    (%rax),%rbp
    2135:	48 8b 73 20          	mov    0x20(%rbx),%rsi
    2139:	48 8b 3e             	mov    (%rsi),%rdi
    213c:	40 f6 c7 10          	test   $0x10,%dil
    2140:	74 0f                	je     2151 <trace+0x91>
    2142:	48 83 c6 08          	add    $0x8,%rsi
    2146:	83 e7 0f             	and    $0xf,%edi
    2149:	e8 22 08 00 00       	callq  2970 <popcount_address_loop>
    214e:	48 03 28             	add    (%rax),%rbp
    2151:	48 8b 73 28          	mov    0x28(%rbx),%rsi
    2155:	48 8b 3e             	mov    (%rsi),%rdi
    2158:	40 f6 c7 20          	test   $0x20,%dil
    215c:	74 0f                	je     216d <trace+0xad>
    215e:	48 83 c6 08          	add    $0x8,%rsi
    2162:	83 e7 1f             	and    $0x1f,%edi
    2165:	e8 06 08 00 00       	callq  2970 <popcount_address_loop>
    216a:	48 03 28             	add    (%rax),%rbp
    216d:	48 8b 73 30          	mov    0x30(%rbx),%rsi
    2171:	48 8b 3e             	mov    (%rsi),%rdi
    2174:	40 f6 c7 40          	test   $0x40,%dil
    2178:	74 0f                	je     2189 <trace+0xc9>
    217a:	48 83 c6 08          	add    $0x8,%rsi
    217e:	83 e7 3f             	and    $0x3f,%edi
    2181:	e8 ea 07 00 00       	callq  2970 <popcount_address_loop>
    2186:	48 03 28             	add    (%rax),%rbp
    2189:	48 8b 73 38          	mov    0x38(%rbx),%rsi
    218d:	48 8b 3e             	mov    (%rsi),%rdi
    2190:	40 f6 c7 80          	test   $0x80,%dil
    2194:	74 0f                	je     21a5 <trace+0xe5>
    2196:	48 83 c6 08          	add    $0x8,%rsi
    219a:	83 e7 7f             	and    $0x7f,%edi
    219d:	e8 ce 07 00 00       	callq  2970 <popcount_address_loop>
    21a2:	48 03 28             	add    (%rax),%rbp
    21a5:	48 8b 73 40          	mov    0x40(%rbx),%rsi
    21a9:	48 8b 3e             	mov    (%rsi),%rdi
    21ac:	f7 c7 00 01 00 00    	test   $0x100,%edi
    21b2:	74 10                	je     21c4 <trace+0x104>
    21b4:	48 83 c6 08          	add    $0x8,%rsi
    21b8:	40 0f b6 ff          	movzbl %dil,%edi
    21bc:	e8 af 07 00 00       	callq  2970 <popcount_address_loop>
    21c1:	48 03 28             	add    (%rax),%rbp
    21c4:	48 8b 73 48          	mov    0x48(%rbx),%rsi
    21c8:	48 8b 3e             	mov    (%rsi),%rdi
    21cb:	f7 c7 00 02 00 00    	test   $0x200,%edi
    21d1:	74 12                	je     21e5 <trace+0x125>
    21d3:	48 83 c6 08          	add    $0x8,%rsi
    21d7:	81 e7 ff 01 00 00    	and    $0x1ff,%edi
    21dd:	e8 8e 07 00 00       	callq  2970 <popcount_address_loop>
    21e2:	48 03 28             	add    (%rax),%rbp
    21e5:	48 83 c4 08          	add    $0x8,%rsp
    21e9:	48 89 e8             	mov    %rbp,%rax
    21ec:	5b                   	pop    %rbx
    21ed:	5d                   	pop    %rbp
    21ee:	c3                   	retq   
    21ef:	90                   	nop

00000000000021f0 <triangleCount>:
    21f0:	41 57                	push   %r15
    21f2:	41 56                	push   %r14
    21f4:	48 89 fe             	mov    %rdi,%rsi
    21f7:	41 55                	push   %r13
    21f9:	41 54                	push   %r12
    21fb:	45 31 f6             	xor    %r14d,%r14d
    21fe:	55                   	push   %rbp
    21ff:	53                   	push   %rbx
    2200:	48 89 fb             	mov    %rdi,%rbx
    2203:	48 83 ec 28          	sub    $0x28,%rsp
    2207:	e8 d4 f8 ff ff       	callq  1ae0 <mul>
    220c:	48 89 df             	mov    %rbx,%rdi
    220f:	48 89 c6             	mov    %rax,%rsi
    2212:	48 89 44 24 18       	mov    %rax,0x18(%rsp)
    2217:	e8 c4 f8 ff ff       	callq  1ae0 <mul>
    221c:	49 89 c5             	mov    %rax,%r13
    221f:	48 8b 00             	mov    (%rax),%rax
    2222:	f6 00 01             	testb  $0x1,(%rax)
    2225:	74 0e                	je     2235 <triangleCount+0x45>
    2227:	48 8d 70 08          	lea    0x8(%rax),%rsi
    222b:	31 ff                	xor    %edi,%edi
    222d:	e8 3e 07 00 00       	callq  2970 <popcount_address_loop>
    2232:	4c 8b 30             	mov    (%rax),%r14
    2235:	49 8b 45 08          	mov    0x8(%r13),%rax
    2239:	48 8b 38             	mov    (%rax),%rdi
    223c:	40 f6 c7 02          	test   $0x2,%dil
    2240:	74 0f                	je     2251 <triangleCount+0x61>
    2242:	48 8d 70 08          	lea    0x8(%rax),%rsi
    2246:	83 e7 01             	and    $0x1,%edi
    2249:	e8 22 07 00 00       	callq  2970 <popcount_address_loop>
    224e:	4c 03 30             	add    (%rax),%r14
    2251:	49 8b 45 10          	mov    0x10(%r13),%rax
    2255:	48 8b 38             	mov    (%rax),%rdi
    2258:	40 f6 c7 04          	test   $0x4,%dil
    225c:	74 0f                	je     226d <triangleCount+0x7d>
    225e:	48 8d 70 08          	lea    0x8(%rax),%rsi
    2262:	83 e7 03             	and    $0x3,%edi
    2265:	e8 06 07 00 00       	callq  2970 <popcount_address_loop>
    226a:	4c 03 30             	add    (%rax),%r14
    226d:	49 8b 45 18          	mov    0x18(%r13),%rax
    2271:	48 8b 38             	mov    (%rax),%rdi
    2274:	40 f6 c7 08          	test   $0x8,%dil
    2278:	74 0f                	je     2289 <triangleCount+0x99>
    227a:	48 8d 70 08          	lea    0x8(%rax),%rsi
    227e:	83 e7 07             	and    $0x7,%edi
    2281:	e8 ea 06 00 00       	callq  2970 <popcount_address_loop>
    2286:	4c 03 30             	add    (%rax),%r14
    2289:	49 8b 45 20          	mov    0x20(%r13),%rax
    228d:	48 8b 38             	mov    (%rax),%rdi
    2290:	40 f6 c7 10          	test   $0x10,%dil
    2294:	74 0f                	je     22a5 <triangleCount+0xb5>
    2296:	48 8d 70 08          	lea    0x8(%rax),%rsi
    229a:	83 e7 0f             	and    $0xf,%edi
    229d:	e8 ce 06 00 00       	callq  2970 <popcount_address_loop>
    22a2:	4c 03 30             	add    (%rax),%r14
    22a5:	49 8b 45 28          	mov    0x28(%r13),%rax
    22a9:	48 8b 38             	mov    (%rax),%rdi
    22ac:	40 f6 c7 20          	test   $0x20,%dil
    22b0:	74 0f                	je     22c1 <triangleCount+0xd1>
    22b2:	48 8d 70 08          	lea    0x8(%rax),%rsi
    22b6:	83 e7 1f             	and    $0x1f,%edi
    22b9:	e8 b2 06 00 00       	callq  2970 <popcount_address_loop>
    22be:	4c 03 30             	add    (%rax),%r14
    22c1:	49 8b 45 30          	mov    0x30(%r13),%rax
    22c5:	48 8b 38             	mov    (%rax),%rdi
    22c8:	40 f6 c7 40          	test   $0x40,%dil
    22cc:	74 0f                	je     22dd <triangleCount+0xed>
    22ce:	48 8d 70 08          	lea    0x8(%rax),%rsi
    22d2:	83 e7 3f             	and    $0x3f,%edi
    22d5:	e8 96 06 00 00       	callq  2970 <popcount_address_loop>
    22da:	4c 03 30             	add    (%rax),%r14
    22dd:	49 8b 45 38          	mov    0x38(%r13),%rax
    22e1:	48 8b 38             	mov    (%rax),%rdi
    22e4:	40 f6 c7 80          	test   $0x80,%dil
    22e8:	74 0f                	je     22f9 <triangleCount+0x109>
    22ea:	48 8d 70 08          	lea    0x8(%rax),%rsi
    22ee:	83 e7 7f             	and    $0x7f,%edi
    22f1:	e8 7a 06 00 00       	callq  2970 <popcount_address_loop>
    22f6:	4c 03 30             	add    (%rax),%r14
    22f9:	49 8b 55 40          	mov    0x40(%r13),%rdx
    22fd:	48 8b 02             	mov    (%rdx),%rax
    2300:	f6 c4 01             	test   $0x1,%ah
    2303:	74 0f                	je     2314 <triangleCount+0x124>
    2305:	48 8d 72 08          	lea    0x8(%rdx),%rsi
    2309:	0f b6 f8             	movzbl %al,%edi
    230c:	e8 5f 06 00 00       	callq  2970 <popcount_address_loop>
    2311:	4c 03 30             	add    (%rax),%r14
    2314:	49 8b 45 48          	mov    0x48(%r13),%rax
    2318:	48 8b 38             	mov    (%rax),%rdi
    231b:	f7 c7 00 02 00 00    	test   $0x200,%edi
    2321:	74 12                	je     2335 <triangleCount+0x145>
    2323:	48 8d 70 08          	lea    0x8(%rax),%rsi
    2327:	81 e7 ff 01 00 00    	and    $0x1ff,%edi
    232d:	e8 3e 06 00 00       	callq  2970 <popcount_address_loop>
    2332:	4c 03 30             	add    (%rax),%r14
    2335:	8b 05 d9 1c 20 00    	mov    0x201cd9(%rip),%eax        # 204014 <verbose>
    233b:	85 c0                	test   %eax,%eax
    233d:	0f 8f 85 00 00 00    	jg     23c8 <triangleCount+0x1d8>
    2343:	48 8b 44 24 18       	mov    0x18(%rsp),%rax
    2348:	48 83 c0 50          	add    $0x50,%rax
    234c:	48 89 44 24 10       	mov    %rax,0x10(%rsp)
    2351:	49 8d 45 50          	lea    0x50(%r13),%rax
    2355:	48 89 44 24 08       	mov    %rax,0x8(%rsp)
    235a:	48 8b 5c 24 18       	mov    0x18(%rsp),%rbx
    235f:	90                   	nop
    2360:	48 8b 3b             	mov    (%rbx),%rdi
    2363:	48 83 c3 08          	add    $0x8,%rbx
    2367:	e8 14 e3 ff ff       	callq  680 <free@plt>
    236c:	48 39 5c 24 10       	cmp    %rbx,0x10(%rsp)
    2371:	75 ed                	jne    2360 <triangleCount+0x170>
    2373:	48 8b 7c 24 18       	mov    0x18(%rsp),%rdi
    2378:	4c 89 eb             	mov    %r13,%rbx
    237b:	e8 00 e3 ff ff       	callq  680 <free@plt>
    2380:	48 8b 3b             	mov    (%rbx),%rdi
    2383:	48 83 c3 08          	add    $0x8,%rbx
    2387:	e8 f4 e2 ff ff       	callq  680 <free@plt>
    238c:	48 3b 5c 24 08       	cmp    0x8(%rsp),%rbx
    2391:	75 ed                	jne    2380 <triangleCount+0x190>
    2393:	4c 89 ef             	mov    %r13,%rdi
    2396:	e8 e5 e2 ff ff       	callq  680 <free@plt>
    239b:	4c 89 f0             	mov    %r14,%rax
    239e:	48 ba ab aa aa aa aa 	movabs $0x2aaaaaaaaaaaaaab,%rdx
    23a5:	aa aa 2a 
    23a8:	48 83 c4 28          	add    $0x28,%rsp
    23ac:	48 f7 ea             	imul   %rdx
    23af:	49 c1 fe 3f          	sar    $0x3f,%r14
    23b3:	5b                   	pop    %rbx
    23b4:	5d                   	pop    %rbp
    23b5:	41 5c                	pop    %r12
    23b7:	48 89 d0             	mov    %rdx,%rax
    23ba:	4c 29 f0             	sub    %r14,%rax
    23bd:	41 5d                	pop    %r13
    23bf:	41 5e                	pop    %r14
    23c1:	41 5f                	pop    %r15
    23c3:	c3                   	retq   
    23c4:	0f 1f 40 00          	nopl   0x0(%rax)
    23c8:	48 8b 5c 24 18       	mov    0x18(%rsp),%rbx
    23cd:	bd 01 00 00 00       	mov    $0x1,%ebp
    23d2:	49 89 dc             	mov    %rbx,%r12
    23d5:	48 83 c3 50          	add    $0x50,%rbx
    23d9:	48 89 5c 24 10       	mov    %rbx,0x10(%rsp)
    23de:	eb 11                	jmp    23f1 <triangleCount+0x201>
    23e0:	49 83 c4 08          	add    $0x8,%r12
    23e4:	4c 39 64 24 10       	cmp    %r12,0x10(%rsp)
    23e9:	74 7a                	je     2465 <triangleCount+0x275>
    23eb:	8b 05 23 1c 20 00    	mov    0x201c23(%rip),%eax        # 204014 <verbose>
    23f1:	85 c0                	test   %eax,%eax
    23f3:	7e eb                	jle    23e0 <triangleCount+0x1f0>
    23f5:	49 8b 1c 24          	mov    (%r12),%rbx
    23f9:	45 31 ff             	xor    %r15d,%r15d
    23fc:	eb 21                	jmp    241f <triangleCount+0x22f>
    23fe:	66 90                	xchg   %ax,%ax
    2400:	31 d2                	xor    %edx,%edx
    2402:	48 8d 35 5b 06 00 00 	lea    0x65b(%rip),%rsi        # 2a64 <_IO_stdin_used+0x4>
    2409:	31 c0                	xor    %eax,%eax
    240b:	bf 01 00 00 00       	mov    $0x1,%edi
    2410:	41 83 c7 01          	add    $0x1,%r15d
    2414:	e8 b7 e2 ff ff       	callq  6d0 <__printf_chk@plt>
    2419:	41 83 ff 0a          	cmp    $0xa,%r15d
    241d:	74 31                	je     2450 <triangleCount+0x260>
    241f:	44 89 f9             	mov    %r15d,%ecx
    2422:	48 8b 13             	mov    (%rbx),%rdx
    2425:	89 e8                	mov    %ebp,%eax
    2427:	d3 e0                	shl    %cl,%eax
    2429:	48 63 c8             	movslq %eax,%rcx
    242c:	48 85 d1             	test   %rdx,%rcx
    242f:	74 cf                	je     2400 <triangleCount+0x210>
    2431:	83 e8 01             	sub    $0x1,%eax
    2434:	48 8d 73 08          	lea    0x8(%rbx),%rsi
    2438:	48 63 f8             	movslq %eax,%rdi
    243b:	48 21 d7             	and    %rdx,%rdi
    243e:	e8 2d 05 00 00       	callq  2970 <popcount_address_loop>
    2443:	48 8b 10             	mov    (%rax),%rdx
    2446:	eb ba                	jmp    2402 <triangleCount+0x212>
    2448:	0f 1f 84 00 00 00 00 	nopl   0x0(%rax,%rax,1)
    244f:	00 
    2450:	bf 0a 00 00 00       	mov    $0xa,%edi
    2455:	49 83 c4 08          	add    $0x8,%r12
    2459:	e8 32 e2 ff ff       	callq  690 <putchar@plt>
    245e:	4c 39 64 24 10       	cmp    %r12,0x10(%rsp)
    2463:	75 86                	jne    23eb <triangleCount+0x1fb>
    2465:	bf 0a 00 00 00       	mov    $0xa,%edi
    246a:	e8 21 e2 ff ff       	callq  690 <putchar@plt>
    246f:	8b 05 9f 1b 20 00    	mov    0x201b9f(%rip),%eax        # 204014 <verbose>
    2475:	85 c0                	test   %eax,%eax
    2477:	0f 8e a7 00 00 00    	jle    2524 <triangleCount+0x334>
    247d:	49 8d 5d 50          	lea    0x50(%r13),%rbx
    2481:	4d 89 ec             	mov    %r13,%r12
    2484:	bd 01 00 00 00       	mov    $0x1,%ebp
    2489:	48 89 5c 24 08       	mov    %rbx,0x8(%rsp)
    248e:	eb 11                	jmp    24a1 <triangleCount+0x2b1>
    2490:	49 83 c4 08          	add    $0x8,%r12
    2494:	4c 39 64 24 08       	cmp    %r12,0x8(%rsp)
    2499:	74 7a                	je     2515 <triangleCount+0x325>
    249b:	8b 05 73 1b 20 00    	mov    0x201b73(%rip),%eax        # 204014 <verbose>
    24a1:	85 c0                	test   %eax,%eax
    24a3:	7e eb                	jle    2490 <triangleCount+0x2a0>
    24a5:	49 8b 1c 24          	mov    (%r12),%rbx
    24a9:	45 31 ff             	xor    %r15d,%r15d
    24ac:	eb 21                	jmp    24cf <triangleCount+0x2df>
    24ae:	66 90                	xchg   %ax,%ax
    24b0:	31 d2                	xor    %edx,%edx
    24b2:	48 8d 35 ab 05 00 00 	lea    0x5ab(%rip),%rsi        # 2a64 <_IO_stdin_used+0x4>
    24b9:	31 c0                	xor    %eax,%eax
    24bb:	bf 01 00 00 00       	mov    $0x1,%edi
    24c0:	41 83 c7 01          	add    $0x1,%r15d
    24c4:	e8 07 e2 ff ff       	callq  6d0 <__printf_chk@plt>
    24c9:	41 83 ff 0a          	cmp    $0xa,%r15d
    24cd:	74 31                	je     2500 <triangleCount+0x310>
    24cf:	48 8b 13             	mov    (%rbx),%rdx
    24d2:	89 e8                	mov    %ebp,%eax
    24d4:	44 89 f9             	mov    %r15d,%ecx
    24d7:	d3 e0                	shl    %cl,%eax
    24d9:	48 63 f0             	movslq %eax,%rsi
    24dc:	48 85 d6             	test   %rdx,%rsi
    24df:	74 cf                	je     24b0 <triangleCount+0x2c0>
    24e1:	83 e8 01             	sub    $0x1,%eax
    24e4:	48 8d 73 08          	lea    0x8(%rbx),%rsi
    24e8:	48 63 f8             	movslq %eax,%rdi
    24eb:	48 21 d7             	and    %rdx,%rdi
    24ee:	e8 7d 04 00 00       	callq  2970 <popcount_address_loop>
    24f3:	48 8b 10             	mov    (%rax),%rdx
    24f6:	eb ba                	jmp    24b2 <triangleCount+0x2c2>
    24f8:	0f 1f 84 00 00 00 00 	nopl   0x0(%rax,%rax,1)
    24ff:	00 
    2500:	bf 0a 00 00 00       	mov    $0xa,%edi
    2505:	49 83 c4 08          	add    $0x8,%r12
    2509:	e8 82 e1 ff ff       	callq  690 <putchar@plt>
    250e:	4c 39 64 24 08       	cmp    %r12,0x8(%rsp)
    2513:	75 86                	jne    249b <triangleCount+0x2ab>
    2515:	bf 0a 00 00 00       	mov    $0xa,%edi
    251a:	e8 71 e1 ff ff       	callq  690 <putchar@plt>
    251f:	e9 36 fe ff ff       	jmpq   235a <triangleCount+0x16a>
    2524:	49 8d 45 50          	lea    0x50(%r13),%rax
    2528:	48 89 44 24 08       	mov    %rax,0x8(%rsp)
    252d:	e9 28 fe ff ff       	jmpq   235a <triangleCount+0x16a>
    2532:	0f 1f 40 00          	nopl   0x0(%rax)
    2536:	66 2e 0f 1f 84 00 00 	nopw   %cs:0x0(%rax,%rax,1)
    253d:	00 00 00 

0000000000002540 <mkId>:
    2540:	41 55                	push   %r13
    2542:	41 54                	push   %r12
    2544:	48 63 ff             	movslq %edi,%rdi
    2547:	55                   	push   %rbp
    2548:	53                   	push   %rbx
    2549:	48 89 fd             	mov    %rdi,%rbp
    254c:	48 c1 e7 03          	shl    $0x3,%rdi
    2550:	48 83 ec 08          	sub    $0x8,%rsp
    2554:	e8 67 e1 ff ff       	callq  6c0 <malloc@plt>
    2559:	85 ed                	test   %ebp,%ebp
    255b:	49 89 c5             	mov    %rax,%r13
    255e:	7e 35                	jle    2595 <mkId+0x55>
    2560:	48 89 c3             	mov    %rax,%rbx
    2563:	8d 45 ff             	lea    -0x1(%rbp),%eax
    2566:	bd 01 00 00 00       	mov    $0x1,%ebp
    256b:	4d 8d 64 c5 08       	lea    0x8(%r13,%rax,8),%r12
    2570:	bf 10 00 00 00       	mov    $0x10,%edi
    2575:	48 83 c3 08          	add    $0x8,%rbx
    2579:	e8 42 e1 ff ff       	callq  6c0 <malloc@plt>
    257e:	48 89 43 f8          	mov    %rax,-0x8(%rbx)
    2582:	48 89 28             	mov    %rbp,(%rax)
    2585:	48 01 ed             	add    %rbp,%rbp
    2588:	4c 39 e3             	cmp    %r12,%rbx
    258b:	48 c7 40 08 01 00 00 	movq   $0x1,0x8(%rax)
    2592:	00 
    2593:	75 db                	jne    2570 <mkId+0x30>
    2595:	48 83 c4 08          	add    $0x8,%rsp
    2599:	4c 89 e8             	mov    %r13,%rax
    259c:	5b                   	pop    %rbx
    259d:	5d                   	pop    %rbp
    259e:	41 5c                	pop    %r12
    25a0:	41 5d                	pop    %r13
    25a2:	c3                   	retq   
    25a3:	0f 1f 00             	nopl   (%rax)
    25a6:	66 2e 0f 1f 84 00 00 	nopw   %cs:0x0(%rax,%rax,1)
    25ad:	00 00 00 

00000000000025b0 <mk1sArray>:
    25b0:	55                   	push   %rbp
    25b1:	53                   	push   %rbx
    25b2:	48 89 fd             	mov    %rdi,%rbp
    25b5:	48 83 ec 08          	sub    $0x8,%rsp
    25b9:	e8 72 02 00 00       	callq  2830 <popcount_loop>
    25be:	48 8d 3c c5 08 00 00 	lea    0x8(,%rax,8),%rdi
    25c5:	00 
    25c6:	48 89 c3             	mov    %rax,%rbx
    25c9:	e8 f2 e0 ff ff       	callq  6c0 <malloc@plt>
    25ce:	48 85 db             	test   %rbx,%rbx
    25d1:	48 89 28             	mov    %rbp,(%rax)
    25d4:	0f 8e ca 00 00 00    	jle    26a4 <mk1sArray+0xf4>
    25da:	48 8d 50 08          	lea    0x8(%rax),%rdx
    25de:	48 8d 4b ff          	lea    -0x1(%rbx),%rcx
    25e2:	48 c1 ea 03          	shr    $0x3,%rdx
    25e6:	83 e2 01             	and    $0x1,%edx
    25e9:	48 83 f9 04          	cmp    $0x4,%rcx
    25ed:	0f 86 bd 00 00 00    	jbe    26b0 <mk1sArray+0x100>
    25f3:	31 f6                	xor    %esi,%esi
    25f5:	48 85 d2             	test   %rdx,%rdx
    25f8:	74 0d                	je     2607 <mk1sArray+0x57>
    25fa:	48 c7 40 08 01 00 00 	movq   $0x1,0x8(%rax)
    2601:	00 
    2602:	be 01 00 00 00       	mov    $0x1,%esi
    2607:	49 89 d8             	mov    %rbx,%r8
    260a:	66 0f 6f 05 9e 04 00 	movdqa 0x49e(%rip),%xmm0        # 2ab0 <_IO_stdin_used+0x50>
    2611:	00 
    2612:	49 29 d0             	sub    %rdx,%r8
    2615:	48 83 c2 01          	add    $0x1,%rdx
    2619:	4c 89 c7             	mov    %r8,%rdi
    261c:	48 8d 0c d0          	lea    (%rax,%rdx,8),%rcx
    2620:	31 d2                	xor    %edx,%edx
    2622:	48 d1 ef             	shr    %rdi
    2625:	0f 1f 00             	nopl   (%rax)
    2628:	48 83 c2 01          	add    $0x1,%rdx
    262c:	48 83 c1 10          	add    $0x10,%rcx
    2630:	0f 29 41 f0          	movaps %xmm0,-0x10(%rcx)
    2634:	48 39 fa             	cmp    %rdi,%rdx
    2637:	72 ef                	jb     2628 <mk1sArray+0x78>
    2639:	4c 89 c1             	mov    %r8,%rcx
    263c:	48 83 e1 fe          	and    $0xfffffffffffffffe,%rcx
    2640:	49 39 c8             	cmp    %rcx,%r8
    2643:	8d 14 0e             	lea    (%rsi,%rcx,1),%edx
    2646:	74 5c                	je     26a4 <mk1sArray+0xf4>
    2648:	48 63 ca             	movslq %edx,%rcx
    264b:	48 c7 44 c8 08 01 00 	movq   $0x1,0x8(%rax,%rcx,8)
    2652:	00 00 
    2654:	8d 4a 01             	lea    0x1(%rdx),%ecx
    2657:	48 63 c9             	movslq %ecx,%rcx
    265a:	48 39 cb             	cmp    %rcx,%rbx
    265d:	7e 45                	jle    26a4 <mk1sArray+0xf4>
    265f:	48 c7 44 c8 08 01 00 	movq   $0x1,0x8(%rax,%rcx,8)
    2666:	00 00 
    2668:	8d 4a 02             	lea    0x2(%rdx),%ecx
    266b:	48 63 c9             	movslq %ecx,%rcx
    266e:	48 39 cb             	cmp    %rcx,%rbx
    2671:	7e 31                	jle    26a4 <mk1sArray+0xf4>
    2673:	48 c7 44 c8 08 01 00 	movq   $0x1,0x8(%rax,%rcx,8)
    267a:	00 00 
    267c:	8d 4a 03             	lea    0x3(%rdx),%ecx
    267f:	48 63 c9             	movslq %ecx,%rcx
    2682:	48 39 cb             	cmp    %rcx,%rbx
    2685:	7e 1d                	jle    26a4 <mk1sArray+0xf4>
    2687:	83 c2 04             	add    $0x4,%edx
    268a:	48 c7 44 c8 08 01 00 	movq   $0x1,0x8(%rax,%rcx,8)
    2691:	00 00 
    2693:	48 63 d2             	movslq %edx,%rdx
    2696:	48 39 d3             	cmp    %rdx,%rbx
    2699:	7e 09                	jle    26a4 <mk1sArray+0xf4>
    269b:	48 c7 44 d0 08 01 00 	movq   $0x1,0x8(%rax,%rdx,8)
    26a2:	00 00 
    26a4:	48 83 c4 08          	add    $0x8,%rsp
    26a8:	5b                   	pop    %rbx
    26a9:	5d                   	pop    %rbp
    26aa:	c3                   	retq   
    26ab:	0f 1f 44 00 00       	nopl   0x0(%rax,%rax,1)
    26b0:	31 d2                	xor    %edx,%edx
    26b2:	eb 94                	jmp    2648 <mk1sArray+0x98>
    26b4:	66 2e 0f 1f 84 00 00 	nopw   %cs:0x0(%rax,%rax,1)
    26bb:	00 00 00 
    26be:	66 90                	xchg   %ax,%ax

00000000000026c0 <popcount_table>:
    26c0:	48 8d 15 f9 03 00 00 	lea    0x3f9(%rip),%rdx        # 2ac0 <popcount_tab>
    26c7:	48 89 f8             	mov    %rdi,%rax
    26ca:	40 0f b6 cf          	movzbl %dil,%ecx
    26ce:	0f b6 c4             	movzbl %ah,%eax
    26d1:	0f b6 0c 0a          	movzbl (%rdx,%rcx,1),%ecx
    26d5:	0f b6 04 02          	movzbl (%rdx,%rax,1),%eax
    26d9:	01 c8                	add    %ecx,%eax
    26db:	48 89 f9             	mov    %rdi,%rcx
    26de:	48 c1 e9 10          	shr    $0x10,%rcx
    26e2:	0f b6 c9             	movzbl %cl,%ecx
    26e5:	0f b6 0c 0a          	movzbl (%rdx,%rcx,1),%ecx
    26e9:	01 c8                	add    %ecx,%eax
    26eb:	89 f9                	mov    %edi,%ecx
    26ed:	c1 e9 18             	shr    $0x18,%ecx
    26f0:	0f b6 0c 0a          	movzbl (%rdx,%rcx,1),%ecx
    26f4:	01 c8                	add    %ecx,%eax
    26f6:	48 89 f9             	mov    %rdi,%rcx
    26f9:	48 c1 e9 20          	shr    $0x20,%rcx
    26fd:	0f b6 c9             	movzbl %cl,%ecx
    2700:	0f b6 0c 0a          	movzbl (%rdx,%rcx,1),%ecx
    2704:	01 c8                	add    %ecx,%eax
    2706:	48 89 f9             	mov    %rdi,%rcx
    2709:	48 c1 e9 28          	shr    $0x28,%rcx
    270d:	0f b6 c9             	movzbl %cl,%ecx
    2710:	0f b6 0c 0a          	movzbl (%rdx,%rcx,1),%ecx
    2714:	01 c8                	add    %ecx,%eax
    2716:	48 89 f9             	mov    %rdi,%rcx
    2719:	48 c1 ef 38          	shr    $0x38,%rdi
    271d:	48 c1 e9 30          	shr    $0x30,%rcx
    2721:	0f b6 c9             	movzbl %cl,%ecx
    2724:	0f b6 0c 0a          	movzbl (%rdx,%rcx,1),%ecx
    2728:	0f b6 14 3a          	movzbl (%rdx,%rdi,1),%edx
    272c:	01 c8                	add    %ecx,%eax
    272e:	01 d0                	add    %edx,%eax
    2730:	48 98                	cltq   
    2732:	c3                   	retq   
    2733:	0f 1f 00             	nopl   (%rax)
    2736:	66 2e 0f 1f 84 00 00 	nopw   %cs:0x0(%rax,%rax,1)
    273d:	00 00 00 

0000000000002740 <pop_shift_32>:
    2740:	89 f8                	mov    %edi,%eax
    2742:	d1 e8                	shr    %eax
    2744:	25 77 77 77 77       	and    $0x77777777,%eax
    2749:	29 c7                	sub    %eax,%edi
    274b:	d1 e8                	shr    %eax
    274d:	25 77 77 77 77       	and    $0x77777777,%eax
    2752:	29 c7                	sub    %eax,%edi
    2754:	d1 e8                	shr    %eax
    2756:	25 77 77 77 77       	and    $0x77777777,%eax
    275b:	29 c7                	sub    %eax,%edi
    275d:	89 f8                	mov    %edi,%eax
    275f:	c1 e8 04             	shr    $0x4,%eax
    2762:	01 f8                	add    %edi,%eax
    2764:	25 0f 0f 0f 0f       	and    $0xf0f0f0f,%eax
    2769:	69 c0 01 01 01 01    	imul   $0x1010101,%eax,%eax
    276f:	c1 e8 18             	shr    $0x18,%eax
    2772:	c3                   	retq   
    2773:	0f 1f 00             	nopl   (%rax)
    2776:	66 2e 0f 1f 84 00 00 	nopw   %cs:0x0(%rax,%rax,1)
    277d:	00 00 00 

0000000000002780 <popcount_shift>:
    2780:	89 fa                	mov    %edi,%edx
    2782:	89 f9                	mov    %edi,%ecx
    2784:	48 c1 ef 20          	shr    $0x20,%rdi
    2788:	d1 ea                	shr    %edx
    278a:	81 e2 77 77 77 77    	and    $0x77777777,%edx
    2790:	29 d1                	sub    %edx,%ecx
    2792:	d1 ea                	shr    %edx
    2794:	81 e2 77 77 77 77    	and    $0x77777777,%edx
    279a:	29 d1                	sub    %edx,%ecx
    279c:	d1 ea                	shr    %edx
    279e:	81 e2 77 77 77 77    	and    $0x77777777,%edx
    27a4:	29 d1                	sub    %edx,%ecx
    27a6:	89 fa                	mov    %edi,%edx
    27a8:	d1 ea                	shr    %edx
    27aa:	89 c8                	mov    %ecx,%eax
    27ac:	81 e2 77 77 77 77    	and    $0x77777777,%edx
    27b2:	c1 e8 04             	shr    $0x4,%eax
    27b5:	29 d7                	sub    %edx,%edi
    27b7:	d1 ea                	shr    %edx
    27b9:	01 c1                	add    %eax,%ecx
    27bb:	81 e2 77 77 77 77    	and    $0x77777777,%edx
    27c1:	89 f8                	mov    %edi,%eax
    27c3:	81 e1 0f 0f 0f 0f    	and    $0xf0f0f0f,%ecx
    27c9:	29 d0                	sub    %edx,%eax
    27cb:	d1 ea                	shr    %edx
    27cd:	81 e2 77 77 77 77    	and    $0x77777777,%edx
    27d3:	29 d0                	sub    %edx,%eax
    27d5:	89 c7                	mov    %eax,%edi
    27d7:	c1 e8 04             	shr    $0x4,%eax
    27da:	01 f8                	add    %edi,%eax
    27dc:	25 0f 0f 0f 0f       	and    $0xf0f0f0f,%eax
    27e1:	69 c0 01 01 01 01    	imul   $0x1010101,%eax,%eax
    27e7:	c1 e8 18             	shr    $0x18,%eax
    27ea:	89 c2                	mov    %eax,%edx
    27ec:	69 c1 01 01 01 01    	imul   $0x1010101,%ecx,%eax
    27f2:	c1 e8 18             	shr    $0x18,%eax
    27f5:	01 d0                	add    %edx,%eax
    27f7:	48 98                	cltq   
    27f9:	c3                   	retq   
    27fa:	66 0f 1f 44 00 00    	nopw   0x0(%rax,%rax,1)

0000000000002800 <pop_loop_32>:
    2800:	31 c0                	xor    %eax,%eax
    2802:	85 ff                	test   %edi,%edi
    2804:	74 1a                	je     2820 <pop_loop_32+0x20>
    2806:	66 2e 0f 1f 84 00 00 	nopw   %cs:0x0(%rax,%rax,1)
    280d:	00 00 00 
    2810:	8d 57 ff             	lea    -0x1(%rdi),%edx
    2813:	83 c0 01             	add    $0x1,%eax
    2816:	21 d7                	and    %edx,%edi
    2818:	75 f6                	jne    2810 <pop_loop_32+0x10>
    281a:	f3 c3                	repz retq 
    281c:	0f 1f 40 00          	nopl   0x0(%rax)
    2820:	f3 c3                	repz retq 
    2822:	0f 1f 40 00          	nopl   0x0(%rax)
    2826:	66 2e 0f 1f 84 00 00 	nopw   %cs:0x0(%rax,%rax,1)
    282d:	00 00 00 

0000000000002830 <popcount_loop>:
    2830:	31 c0                	xor    %eax,%eax
    2832:	85 ff                	test   %edi,%edi
    2834:	89 fa                	mov    %edi,%edx
    2836:	74 12                	je     284a <popcount_loop+0x1a>
    2838:	0f 1f 84 00 00 00 00 	nopl   0x0(%rax,%rax,1)
    283f:	00 
    2840:	8d 4a ff             	lea    -0x1(%rdx),%ecx
    2843:	83 c0 01             	add    $0x1,%eax
    2846:	21 ca                	and    %ecx,%edx
    2848:	75 f6                	jne    2840 <popcount_loop+0x10>
    284a:	48 c1 ef 20          	shr    $0x20,%rdi
    284e:	48 85 ff             	test   %rdi,%rdi
    2851:	89 fa                	mov    %edi,%edx
    2853:	74 17                	je     286c <popcount_loop+0x3c>
    2855:	31 f6                	xor    %esi,%esi
    2857:	66 0f 1f 84 00 00 00 	nopw   0x0(%rax,%rax,1)
    285e:	00 00 
    2860:	8d 4a ff             	lea    -0x1(%rdx),%ecx
    2863:	83 c6 01             	add    $0x1,%esi
    2866:	21 ca                	and    %ecx,%edx
    2868:	75 f6                	jne    2860 <popcount_loop+0x30>
    286a:	01 f0                	add    %esi,%eax
    286c:	48 98                	cltq   
    286e:	c3                   	retq   
    286f:	90                   	nop

0000000000002870 <popcount_address_table>:
    2870:	48 8d 15 49 02 00 00 	lea    0x249(%rip),%rdx        # 2ac0 <popcount_tab>
    2877:	48 89 f8             	mov    %rdi,%rax
    287a:	40 0f b6 cf          	movzbl %dil,%ecx
    287e:	0f b6 c4             	movzbl %ah,%eax
    2881:	0f b6 0c 0a          	movzbl (%rdx,%rcx,1),%ecx
    2885:	0f b6 04 02          	movzbl (%rdx,%rax,1),%eax
    2889:	01 c8                	add    %ecx,%eax
    288b:	48 89 f9             	mov    %rdi,%rcx
    288e:	48 c1 e9 10          	shr    $0x10,%rcx
    2892:	0f b6 c9             	movzbl %cl,%ecx
    2895:	0f b6 0c 0a          	movzbl (%rdx,%rcx,1),%ecx
    2899:	01 c8                	add    %ecx,%eax
    289b:	89 f9                	mov    %edi,%ecx
    289d:	c1 e9 18             	shr    $0x18,%ecx
    28a0:	0f b6 0c 0a          	movzbl (%rdx,%rcx,1),%ecx
    28a4:	01 c8                	add    %ecx,%eax
    28a6:	48 89 f9             	mov    %rdi,%rcx
    28a9:	48 c1 e9 20          	shr    $0x20,%rcx
    28ad:	0f b6 c9             	movzbl %cl,%ecx
    28b0:	0f b6 0c 0a          	movzbl (%rdx,%rcx,1),%ecx
    28b4:	01 c8                	add    %ecx,%eax
    28b6:	48 89 f9             	mov    %rdi,%rcx
    28b9:	48 c1 e9 28          	shr    $0x28,%rcx
    28bd:	0f b6 c9             	movzbl %cl,%ecx
    28c0:	0f b6 0c 0a          	movzbl (%rdx,%rcx,1),%ecx
    28c4:	01 c8                	add    %ecx,%eax
    28c6:	48 89 f9             	mov    %rdi,%rcx
    28c9:	48 c1 ef 38          	shr    $0x38,%rdi
    28cd:	48 c1 e9 30          	shr    $0x30,%rcx
    28d1:	0f b6 c9             	movzbl %cl,%ecx
    28d4:	0f b6 0c 0a          	movzbl (%rdx,%rcx,1),%ecx
    28d8:	0f b6 14 3a          	movzbl (%rdx,%rdi,1),%edx
    28dc:	01 c8                	add    %ecx,%eax
    28de:	01 d0                	add    %edx,%eax
    28e0:	48 98                	cltq   
    28e2:	48 8d 04 c6          	lea    (%rsi,%rax,8),%rax
    28e6:	c3                   	retq   
    28e7:	66 0f 1f 84 00 00 00 	nopw   0x0(%rax,%rax,1)
    28ee:	00 00 

00000000000028f0 <popcount_address_shift>:
    28f0:	89 f8                	mov    %edi,%eax
    28f2:	89 fa                	mov    %edi,%edx
    28f4:	48 c1 ef 20          	shr    $0x20,%rdi
    28f8:	d1 e8                	shr    %eax
    28fa:	25 77 77 77 77       	and    $0x77777777,%eax
    28ff:	29 c2                	sub    %eax,%edx
    2901:	d1 e8                	shr    %eax
    2903:	25 77 77 77 77       	and    $0x77777777,%eax
    2908:	29 c2                	sub    %eax,%edx
    290a:	d1 e8                	shr    %eax
    290c:	25 77 77 77 77       	and    $0x77777777,%eax
    2911:	29 c2                	sub    %eax,%edx
    2913:	89 d0                	mov    %edx,%eax
    2915:	c1 ea 04             	shr    $0x4,%edx
    2918:	01 c2                	add    %eax,%edx
    291a:	89 f8                	mov    %edi,%eax
    291c:	d1 e8                	shr    %eax
    291e:	81 e2 0f 0f 0f 0f    	and    $0xf0f0f0f,%edx
    2924:	25 77 77 77 77       	and    $0x77777777,%eax
    2929:	29 c7                	sub    %eax,%edi
    292b:	d1 e8                	shr    %eax
    292d:	25 77 77 77 77       	and    $0x77777777,%eax
    2932:	29 c7                	sub    %eax,%edi
    2934:	d1 e8                	shr    %eax
    2936:	25 77 77 77 77       	and    $0x77777777,%eax
    293b:	29 c7                	sub    %eax,%edi
    293d:	89 f8                	mov    %edi,%eax
    293f:	c1 e8 04             	shr    $0x4,%eax
    2942:	01 f8                	add    %edi,%eax
    2944:	25 0f 0f 0f 0f       	and    $0xf0f0f0f,%eax
    2949:	89 c7                	mov    %eax,%edi
    294b:	69 c2 01 01 01 01    	imul   $0x1010101,%edx,%eax
    2951:	c1 e8 18             	shr    $0x18,%eax
    2954:	89 c2                	mov    %eax,%edx
    2956:	69 c7 01 01 01 01    	imul   $0x1010101,%edi,%eax
    295c:	c1 e8 18             	shr    $0x18,%eax
    295f:	01 d0                	add    %edx,%eax
    2961:	48 98                	cltq   
    2963:	48 8d 04 c6          	lea    (%rsi,%rax,8),%rax
    2967:	c3                   	retq   
    2968:	0f 1f 84 00 00 00 00 	nopl   0x0(%rax,%rax,1)
    296f:	00 

0000000000002970 <popcount_address_loop>:
    2970:	31 d2                	xor    %edx,%edx
    2972:	85 ff                	test   %edi,%edi
    2974:	89 f8                	mov    %edi,%eax
    2976:	74 12                	je     298a <popcount_address_loop+0x1a>
    2978:	0f 1f 84 00 00 00 00 	nopl   0x0(%rax,%rax,1)
    297f:	00 
    2980:	8d 48 ff             	lea    -0x1(%rax),%ecx
    2983:	83 c2 01             	add    $0x1,%edx
    2986:	21 c8                	and    %ecx,%eax
    2988:	75 f6                	jne    2980 <popcount_address_loop+0x10>
    298a:	48 c1 ef 20          	shr    $0x20,%rdi
    298e:	48 85 ff             	test   %rdi,%rdi
    2991:	89 f8                	mov    %edi,%eax
    2993:	74 17                	je     29ac <popcount_address_loop+0x3c>
    2995:	31 ff                	xor    %edi,%edi
    2997:	66 0f 1f 84 00 00 00 	nopw   0x0(%rax,%rax,1)
    299e:	00 00 
    29a0:	8d 48 ff             	lea    -0x1(%rax),%ecx
    29a3:	83 c7 01             	add    $0x1,%edi
    29a6:	21 c8                	and    %ecx,%eax
    29a8:	75 f6                	jne    29a0 <popcount_address_loop+0x30>
    29aa:	01 fa                	add    %edi,%edx
    29ac:	48 63 d2             	movslq %edx,%rdx
    29af:	48 8d 04 d6          	lea    (%rsi,%rdx,8),%rax
    29b3:	c3                   	retq   
    29b4:	66 90                	xchg   %ax,%ax
    29b6:	66 2e 0f 1f 84 00 00 	nopw   %cs:0x0(%rax,%rax,1)
    29bd:	00 00 00 

00000000000029c0 <popcount_hardware>:
    29c0:	f3 48 0f b8 c7       	popcnt %rdi,%rax
    29c5:	c3                   	retq   
    29c6:	66 2e 0f 1f 84 00 00 	nopw   %cs:0x0(%rax,%rax,1)
    29cd:	00 00 00 

00000000000029d0 <popcount_address_hardware>:
    29d0:	f3 48 0f b8 ff       	popcnt %rdi,%rdi
    29d5:	48 8d 04 fe          	lea    (%rsi,%rdi,8),%rax
    29d9:	c3                   	retq   
    29da:	66 0f 1f 44 00 00    	nopw   0x0(%rax,%rax,1)

00000000000029e0 <__libc_csu_init>:
    29e0:	41 57                	push   %r15
    29e2:	41 56                	push   %r14
    29e4:	49 89 d7             	mov    %rdx,%r15
    29e7:	41 55                	push   %r13
    29e9:	41 54                	push   %r12
    29eb:	4c 8d 25 9e 13 20 00 	lea    0x20139e(%rip),%r12        # 203d90 <__frame_dummy_init_array_entry>
    29f2:	55                   	push   %rbp
    29f3:	48 8d 2d 9e 13 20 00 	lea    0x20139e(%rip),%rbp        # 203d98 <__init_array_end>
    29fa:	53                   	push   %rbx
    29fb:	41 89 fd             	mov    %edi,%r13d
    29fe:	49 89 f6             	mov    %rsi,%r14
    2a01:	4c 29 e5             	sub    %r12,%rbp
    2a04:	48 83 ec 08          	sub    $0x8,%rsp
    2a08:	48 c1 fd 03          	sar    $0x3,%rbp
    2a0c:	e8 3f dc ff ff       	callq  650 <_init>
    2a11:	48 85 ed             	test   %rbp,%rbp
    2a14:	74 20                	je     2a36 <__libc_csu_init+0x56>
    2a16:	31 db                	xor    %ebx,%ebx
    2a18:	0f 1f 84 00 00 00 00 	nopl   0x0(%rax,%rax,1)
    2a1f:	00 
    2a20:	4c 89 fa             	mov    %r15,%rdx
    2a23:	4c 89 f6             	mov    %r14,%rsi
    2a26:	44 89 ef             	mov    %r13d,%edi
    2a29:	41 ff 14 dc          	callq  *(%r12,%rbx,8)
    2a2d:	48 83 c3 01          	add    $0x1,%rbx
    2a31:	48 39 dd             	cmp    %rbx,%rbp
    2a34:	75 ea                	jne    2a20 <__libc_csu_init+0x40>
    2a36:	48 83 c4 08          	add    $0x8,%rsp
    2a3a:	5b                   	pop    %rbx
    2a3b:	5d                   	pop    %rbp
    2a3c:	41 5c                	pop    %r12
    2a3e:	41 5d                	pop    %r13
    2a40:	41 5e                	pop    %r14
    2a42:	41 5f                	pop    %r15
    2a44:	c3                   	retq   
    2a45:	90                   	nop
    2a46:	66 2e 0f 1f 84 00 00 	nopw   %cs:0x0(%rax,%rax,1)
    2a4d:	00 00 00 

0000000000002a50 <__libc_csu_fini>:
    2a50:	f3 c3                	repz retq 

Disassembly of section .fini:

0000000000002a54 <_fini>:
    2a54:	48 83 ec 08          	sub    $0x8,%rsp
    2a58:	48 83 c4 08          	add    $0x8,%rsp
    2a5c:	c3                   	retq   
